BL51 BANKED LINKER/LOCATER V6.22                                                        05/10/2018  21:55:46  PAGE 1


BL51 BANKED LINKER/LOCATER V6.22, INVOKED BY:
F:\SOFTWARE\KEIL\C51\BIN\BL51.EXE ..\output\fw.obj, ..\output\periph.obj, ..\output\dscr.obj, ..\Lib\EZUSB.LIB, ..\Lib\U
>> SBJmpTb.OBJ TO ..\output\usb PRINT (.\Listings\usb.m51) RAMSIZE (256)


MEMORY MODEL: SMALL


INPUT MODULES INCLUDED:
  ..\output\fw.obj (FW)
  ..\output\periph.obj (PERIPH)
  ..\output\dscr.obj (DSCR)
  ..\Lib\EZUSB.LIB (RESUME)
  ..\Lib\EZUSB.LIB (DISCON)
  ..\Lib\EZUSB.LIB (EZREGS)
  ..\Lib\EZUSB.LIB (GET_STRD)
  ..\Lib\EZUSB.LIB (SUSP)
  ..\Lib\EZUSB.LIB (DELAY)
  ..\Lib\EZUSB.LIB (DELAY1MS)
  ..\Lib\USBJmpTb.OBJ (USBJMPTBL)
  F:\SOFTWARE\KEIL\C51\LIB\C51S.LIB (?C_STARTUP)
  F:\SOFTWARE\KEIL\C51\LIB\C51S.LIB (?C?ULCMP)


LINK MAP OF MODULE:  ..\output\usb (FW)


            TYPE    BASE      LENGTH    RELOCATION   SEGMENT NAME
            -----------------------------------------------------

            * * * * * * *   D A T A   M E M O R Y   * * * * * * *
            REG     0000H     0008H     ABSOLUTE     "REG BANK 0"
            DATA    0008H     0012H     UNIT         _DATA_GROUP_
            DATA    001AH     0002H     UNIT         ?DT?PERIPH
                    001CH     0004H                  *** GAP ***
            BIT     0020H.0   0000H.4   UNIT         ?BI?FW
            BIT     0020H.4   0000H.1   UNIT         _BIT_GROUP_
                    0020H.5   0000H.3                *** GAP ***
            DATA    0021H     000EH     UNIT         ?DT?FW
            IDATA   002FH     0001H     UNIT         ?STACK

            * * * * * * *  X D A T A   M E M O R Y  * * * * * * *
                    0000H     E400H                  *** GAP ***
            XDATA   E400H     0001H     ABSOLUTE     
                    E401H     007FH                  *** GAP ***
            XDATA   E480H     0001H     ABSOLUTE     
                    E481H     0088H                  *** GAP ***
            XDATA   E509H     0001H     ABSOLUTE     
                    E50AH     00F6H                  *** GAP ***
            XDATA   E600H     0001H     ABSOLUTE     
            XDATA   E601H     0001H     ABSOLUTE     
            XDATA   E602H     0001H     ABSOLUTE     
            XDATA   E603H     0001H     ABSOLUTE     
            XDATA   E604H     0001H     ABSOLUTE     
            XDATA   E605H     0001H     ABSOLUTE     
            XDATA   E606H     0001H     ABSOLUTE     
            XDATA   E607H     0001H     ABSOLUTE     
            XDATA   E608H     0001H     ABSOLUTE     
BL51 BANKED LINKER/LOCATER V6.22                                                      05/10/2018  21:55:46  PAGE 2


            XDATA   E609H     0001H     ABSOLUTE     
            XDATA   E60AH     0001H     ABSOLUTE     
            XDATA   E60BH     0001H     ABSOLUTE     
            XDATA   E60CH     0001H     ABSOLUTE     
                    E60DH     0003H                  *** GAP ***
            XDATA   E610H     0001H     ABSOLUTE     
            XDATA   E611H     0001H     ABSOLUTE     
            XDATA   E612H     0001H     ABSOLUTE     
            XDATA   E613H     0001H     ABSOLUTE     
            XDATA   E614H     0001H     ABSOLUTE     
            XDATA   E615H     0001H     ABSOLUTE     
                    E616H     0002H                  *** GAP ***
            XDATA   E618H     0001H     ABSOLUTE     
            XDATA   E619H     0001H     ABSOLUTE     
            XDATA   E61AH     0001H     ABSOLUTE     
            XDATA   E61BH     0001H     ABSOLUTE     
                    E61CH     0004H                  *** GAP ***
            XDATA   E620H     0001H     ABSOLUTE     
            XDATA   E621H     0001H     ABSOLUTE     
            XDATA   E622H     0001H     ABSOLUTE     
            XDATA   E623H     0001H     ABSOLUTE     
            XDATA   E624H     0001H     ABSOLUTE     
            XDATA   E625H     0001H     ABSOLUTE     
            XDATA   E626H     0001H     ABSOLUTE     
            XDATA   E627H     0001H     ABSOLUTE     
            XDATA   E628H     0001H     ABSOLUTE     
            XDATA   E629H     0001H     ABSOLUTE     
            XDATA   E62AH     0001H     ABSOLUTE     
            XDATA   E62BH     0001H     ABSOLUTE     
            XDATA   E62CH     0001H     ABSOLUTE     
            XDATA   E62DH     0001H     ABSOLUTE     
            XDATA   E62EH     0001H     ABSOLUTE     
            XDATA   E62FH     0001H     ABSOLUTE     
            XDATA   E630H     0001H     ABSOLUTE     
            XDATA   E631H     0001H     ABSOLUTE     
            XDATA   E632H     0001H     ABSOLUTE     
            XDATA   E633H     0001H     ABSOLUTE     
            XDATA   E634H     0001H     ABSOLUTE     
            XDATA   E635H     0001H     ABSOLUTE     
            XDATA   E636H     0001H     ABSOLUTE     
            XDATA   E637H     0001H     ABSOLUTE     
                    E638H     0008H                  *** GAP ***
            XDATA   E640H     0001H     ABSOLUTE     
            XDATA   E641H     0001H     ABSOLUTE     
            XDATA   E642H     0001H     ABSOLUTE     
            XDATA   E643H     0001H     ABSOLUTE     
                    E644H     0004H                  *** GAP ***
            XDATA   E648H     0001H     ABSOLUTE     
            XDATA   E649H     0001H     ABSOLUTE     
                    E64AH     0006H                  *** GAP ***
            XDATA   E650H     0001H     ABSOLUTE     
            XDATA   E651H     0001H     ABSOLUTE     
            XDATA   E652H     0001H     ABSOLUTE     
            XDATA   E653H     0001H     ABSOLUTE     
            XDATA   E654H     0001H     ABSOLUTE     
            XDATA   E655H     0001H     ABSOLUTE     
            XDATA   E656H     0001H     ABSOLUTE     
BL51 BANKED LINKER/LOCATER V6.22                                                      05/10/2018  21:55:46  PAGE 3


            XDATA   E657H     0001H     ABSOLUTE     
            XDATA   E658H     0001H     ABSOLUTE     
            XDATA   E659H     0001H     ABSOLUTE     
            XDATA   E65AH     0001H     ABSOLUTE     
            XDATA   E65BH     0001H     ABSOLUTE     
            XDATA   E65CH     0001H     ABSOLUTE     
            XDATA   E65DH     0001H     ABSOLUTE     
            XDATA   E65EH     0001H     ABSOLUTE     
            XDATA   E65FH     0001H     ABSOLUTE     
            XDATA   E660H     0001H     ABSOLUTE     
            XDATA   E661H     0001H     ABSOLUTE     
            XDATA   E662H     0001H     ABSOLUTE     
            XDATA   E663H     0001H     ABSOLUTE     
            XDATA   E664H     0001H     ABSOLUTE     
            XDATA   E665H     0001H     ABSOLUTE     
            XDATA   E666H     0001H     ABSOLUTE     
            XDATA   E667H     0001H     ABSOLUTE     
            XDATA   E668H     0001H     ABSOLUTE     
                    E669H     0007H                  *** GAP ***
            XDATA   E670H     0001H     ABSOLUTE     
            XDATA   E671H     0001H     ABSOLUTE     
            XDATA   E672H     0001H     ABSOLUTE     
                    E673H     0005H                  *** GAP ***
            XDATA   E678H     0001H     ABSOLUTE     
            XDATA   E679H     0001H     ABSOLUTE     
            XDATA   E67AH     0001H     ABSOLUTE     
            XDATA   E67BH     0001H     ABSOLUTE     
            XDATA   E67CH     0001H     ABSOLUTE     
            XDATA   E67DH     0001H     ABSOLUTE     
            XDATA   E67EH     0001H     ABSOLUTE     
            XDATA   E67FH     0001H     ABSOLUTE     
            XDATA   E680H     0001H     ABSOLUTE     
            XDATA   E681H     0001H     ABSOLUTE     
            XDATA   E682H     0001H     ABSOLUTE     
            XDATA   E683H     0001H     ABSOLUTE     
            XDATA   E684H     0001H     ABSOLUTE     
            XDATA   E685H     0001H     ABSOLUTE     
            XDATA   E686H     0001H     ABSOLUTE     
            XDATA   E687H     0001H     ABSOLUTE     
                    E688H     0002H                  *** GAP ***
            XDATA   E68AH     0001H     ABSOLUTE     
            XDATA   E68BH     0001H     ABSOLUTE     
                    E68CH     0001H                  *** GAP ***
            XDATA   E68DH     0001H     ABSOLUTE     
                    E68EH     0001H                  *** GAP ***
            XDATA   E68FH     0001H     ABSOLUTE     
            XDATA   E690H     0001H     ABSOLUTE     
            XDATA   E691H     0001H     ABSOLUTE     
                    E692H     0002H                  *** GAP ***
            XDATA   E694H     0001H     ABSOLUTE     
            XDATA   E695H     0001H     ABSOLUTE     
                    E696H     0002H                  *** GAP ***
            XDATA   E698H     0001H     ABSOLUTE     
            XDATA   E699H     0001H     ABSOLUTE     
                    E69AH     0002H                  *** GAP ***
            XDATA   E69CH     0001H     ABSOLUTE     
            XDATA   E69DH     0001H     ABSOLUTE     
BL51 BANKED LINKER/LOCATER V6.22                                                      05/10/2018  21:55:46  PAGE 4


                    E69EH     0002H                  *** GAP ***
            XDATA   E6A0H     0001H     ABSOLUTE     
            XDATA   E6A1H     0001H     ABSOLUTE     
            XDATA   E6A2H     0001H     ABSOLUTE     
            XDATA   E6A3H     0001H     ABSOLUTE     
            XDATA   E6A4H     0001H     ABSOLUTE     
            XDATA   E6A5H     0001H     ABSOLUTE     
            XDATA   E6A6H     0001H     ABSOLUTE     
            XDATA   E6A7H     0001H     ABSOLUTE     
            XDATA   E6A8H     0001H     ABSOLUTE     
            XDATA   E6A9H     0001H     ABSOLUTE     
            XDATA   E6AAH     0001H     ABSOLUTE     
            XDATA   E6ABH     0001H     ABSOLUTE     
            XDATA   E6ACH     0001H     ABSOLUTE     
            XDATA   E6ADH     0001H     ABSOLUTE     
            XDATA   E6AEH     0001H     ABSOLUTE     
            XDATA   E6AFH     0001H     ABSOLUTE     
            XDATA   E6B0H     0001H     ABSOLUTE     
            XDATA   E6B1H     0001H     ABSOLUTE     
            XDATA   E6B2H     0001H     ABSOLUTE     
            XDATA   E6B3H     0001H     ABSOLUTE     
            XDATA   E6B4H     0001H     ABSOLUTE     
            XDATA   E6B5H     0001H     ABSOLUTE     
                    E6B6H     0002H                  *** GAP ***
            XDATA   E6B8H     0008H     ABSOLUTE     
            XDATA   E6C0H     0001H     ABSOLUTE     
            XDATA   E6C1H     0001H     ABSOLUTE     
            XDATA   E6C2H     0001H     ABSOLUTE     
            XDATA   E6C3H     0001H     ABSOLUTE     
            XDATA   E6C4H     0001H     ABSOLUTE     
            XDATA   E6C5H     0001H     ABSOLUTE     
            XDATA   E6C6H     0001H     ABSOLUTE     
            XDATA   E6C7H     0001H     ABSOLUTE     
            XDATA   E6C8H     0001H     ABSOLUTE     
            XDATA   E6C9H     0001H     ABSOLUTE     
            XDATA   E6CAH     0001H     ABSOLUTE     
            XDATA   E6CBH     0001H     ABSOLUTE     
            XDATA   E6CCH     0001H     ABSOLUTE     
            XDATA   E6CDH     0001H     ABSOLUTE     
            XDATA   E6CEH     0001H     ABSOLUTE     
            XDATA   E6CFH     0001H     ABSOLUTE     
            XDATA   E6D0H     0001H     ABSOLUTE     
            XDATA   E6D1H     0001H     ABSOLUTE     
            XDATA   E6D2H     0001H     ABSOLUTE     
            XDATA   E6D3H     0001H     ABSOLUTE     
            XDATA   E6D4H     0001H     ABSOLUTE     
                    E6D5H     0005H                  *** GAP ***
            XDATA   E6DAH     0001H     ABSOLUTE     
            XDATA   E6DBH     0001H     ABSOLUTE     
            XDATA   E6DCH     0001H     ABSOLUTE     
                    E6DDH     0005H                  *** GAP ***
            XDATA   E6E2H     0001H     ABSOLUTE     
            XDATA   E6E3H     0001H     ABSOLUTE     
            XDATA   E6E4H     0001H     ABSOLUTE     
                    E6E5H     0005H                  *** GAP ***
            XDATA   E6EAH     0001H     ABSOLUTE     
            XDATA   E6EBH     0001H     ABSOLUTE     
BL51 BANKED LINKER/LOCATER V6.22                                                      05/10/2018  21:55:46  PAGE 5


            XDATA   E6ECH     0001H     ABSOLUTE     
                    E6EDH     0003H                  *** GAP ***
            XDATA   E6F0H     0001H     ABSOLUTE     
            XDATA   E6F1H     0001H     ABSOLUTE     
            XDATA   E6F2H     0001H     ABSOLUTE     
            XDATA   E6F3H     0001H     ABSOLUTE     
            XDATA   E6F4H     0001H     ABSOLUTE     
            XDATA   E6F5H     0001H     ABSOLUTE     
                    E6F6H     0002H                  *** GAP ***
            XDATA   E6F8H     0001H     ABSOLUTE     
            XDATA   E6F9H     0001H     ABSOLUTE     
            XDATA   E6FAH     0001H     ABSOLUTE     
            XDATA   E6FBH     0001H     ABSOLUTE     
            XDATA   E6FCH     0001H     ABSOLUTE     
            XDATA   E6FDH     0001H     ABSOLUTE     
            XDATA   E6FEH     0001H     ABSOLUTE     
                    E6FFH     0041H                  *** GAP ***
            XDATA   E740H     0040H     ABSOLUTE     
            XDATA   E780H     0040H     ABSOLUTE     
            XDATA   E7C0H     0040H     ABSOLUTE     
                    E800H     0800H                  *** GAP ***
            XDATA   F000H     0400H     ABSOLUTE     
            XDATA   F400H     0400H     ABSOLUTE     
            XDATA   F800H     0400H     ABSOLUTE     
            XDATA   FC00H     0400H     ABSOLUTE     

            * * * * * * *   C O D E   M E M O R Y   * * * * * * *
            CODE    0000H     0003H     ABSOLUTE     
            CODE    0003H     002FH     UNIT         ?PR?EZUSB_DISCON?DISCON
            CODE    0032H     0001H     UNIT         ?PR?TD_POLL?PERIPH
            CODE    0033H     0003H     ABSOLUTE     
            CODE    0036H     000CH     UNIT         ?C_C51STARTUP
            CODE    0042H     0001H     UNIT         ?PR?ISR_EP0ACK?PERIPH
            CODE    0043H     0003H     ABSOLUTE     
            CODE    0046H     000BH     UNIT         ?PR?HIGHSPEEDCAPABLE?FW
            CODE    0051H     0002H     UNIT         ?PR?TD_SUSPEND?PERIPH
            CODE    0053H     0003H     ABSOLUTE     
            CODE    0056H     0238H     UNIT         ?PR?SETUPCOMMAND?FW
            CODE    028EH     0167H     UNIT         ?PR?MAIN?FW
            CODE    03F5H     000AH     UNIT         ?CO?FW
            CODE    03FFH     0001H     UNIT         ?PR?ISR_STUB?PERIPH
            CODE    0400H     00B8H     PAGE         ?PR?USB_JUMP_TABLE?USBJT
            CODE    04B8H     0046H     UNIT         ?PR?_EZUSB_DELAY?DELAY
            CODE    04FEH     0002H     UNIT         ?PR?TD_RESUME?PERIPH
            CODE    0500H     009CH     PAGE         DSCR
            CODE    059CH     0087H     UNIT         ?PR?TD_INIT?PERIPH
            CODE    0623H     003DH     UNIT         ?PR?ISR_HIGHSPEED?PERIPH
            CODE    0660H     0036H     UNIT         ?PR?ISR_URES?PERIPH
            CODE    0696H     002CH     UNIT         ?PR?EZUSB_RESUME?RESUME
            CODE    06C2H     002BH     UNIT         ?PR?_EZUSB_GETSTRINGDSCR?GET_STRD
            CODE    06EDH     0025H     UNIT         EZUSB
            CODE    0712H     0018H     UNIT         ?PR?ISR_SUDAV?PERIPH
            CODE    072AH     0018H     UNIT         ?PR?ISR_SUSP?PERIPH
            CODE    0742H     0016H     UNIT         ?PR?ISR_SUTOK?PERIPH
            CODE    0758H     0016H     UNIT         ?PR?ISR_SOF?PERIPH
            CODE    076EH     0012H     UNIT         ?PR?DR_GETCONFIGURATION?PERIPH
            CODE    0780H     0012H     UNIT         ?PR?DR_GETINTERFACE?PERIPH
BL51 BANKED LINKER/LOCATER V6.22                                                      05/10/2018  21:55:46  PAGE 6


            CODE    0792H     0011H     UNIT         ?C?LIB_CODE
            CODE    07A3H     0008H     UNIT         ?PR?DR_SETCONFIGURATION?PERIPH
            CODE    07ABH     0008H     UNIT         ?PR?DR_SETINTERFACE?PERIPH
            CODE    07B3H     0004H     UNIT         ?PR?RESUME_ISR?FW
            CODE    07B7H     0002H     UNIT         ?PR?DR_GETDESCRIPTOR?PERIPH
            CODE    07B9H     0002H     UNIT         ?PR?DR_GETSTATUS?PERIPH
            CODE    07BBH     0002H     UNIT         ?PR?DR_CLEARFEATURE?PERIPH
            CODE    07BDH     0002H     UNIT         ?PR?DR_SETFEATURE?PERIPH
            CODE    07BFH     0002H     UNIT         ?PR?DR_VENDORCMND?PERIPH
            CODE    07C1H     0001H     UNIT         ?PR?ISR_EP0IN?PERIPH
            CODE    07C2H     0001H     UNIT         ?PR?ISR_EP0OUT?PERIPH
            CODE    07C3H     0001H     UNIT         ?PR?ISR_EP1IN?PERIPH
            CODE    07C4H     0001H     UNIT         ?PR?ISR_EP1OUT?PERIPH
            CODE    07C5H     0001H     UNIT         ?PR?ISR_EP2INOUT?PERIPH
            CODE    07C6H     0001H     UNIT         ?PR?ISR_EP4INOUT?PERIPH
            CODE    07C7H     0001H     UNIT         ?PR?ISR_EP6INOUT?PERIPH
            CODE    07C8H     0001H     UNIT         ?PR?ISR_EP8INOUT?PERIPH
            CODE    07C9H     0001H     UNIT         ?PR?ISR_IBN?PERIPH
            CODE    07CAH     0001H     UNIT         ?PR?ISR_EP0PINGNAK?PERIPH
            CODE    07CBH     0001H     UNIT         ?PR?ISR_EP1PINGNAK?PERIPH
            CODE    07CCH     0001H     UNIT         ?PR?ISR_EP2PINGNAK?PERIPH
            CODE    07CDH     0001H     UNIT         ?PR?ISR_EP4PINGNAK?PERIPH
            CODE    07CEH     0001H     UNIT         ?PR?ISR_EP6PINGNAK?PERIPH
            CODE    07CFH     0001H     UNIT         ?PR?ISR_EP8PINGNAK?PERIPH
            CODE    07D0H     0001H     UNIT         ?PR?ISR_ERRORLIMIT?PERIPH
            CODE    07D1H     0001H     UNIT         ?PR?ISR_EP2PIDERROR?PERIPH
            CODE    07D2H     0001H     UNIT         ?PR?ISR_EP4PIDERROR?PERIPH
            CODE    07D3H     0001H     UNIT         ?PR?ISR_EP6PIDERROR?PERIPH
            CODE    07D4H     0001H     UNIT         ?PR?ISR_EP8PIDERROR?PERIPH
            CODE    07D5H     0001H     UNIT         ?PR?ISR_EP2PFLAG?PERIPH
            CODE    07D6H     0001H     UNIT         ?PR?ISR_EP4PFLAG?PERIPH
            CODE    07D7H     0001H     UNIT         ?PR?ISR_EP6PFLAG?PERIPH
            CODE    07D8H     0001H     UNIT         ?PR?ISR_EP8PFLAG?PERIPH
            CODE    07D9H     0001H     UNIT         ?PR?ISR_EP2EFLAG?PERIPH
            CODE    07DAH     0001H     UNIT         ?PR?ISR_EP4EFLAG?PERIPH
            CODE    07DBH     0001H     UNIT         ?PR?ISR_EP6EFLAG?PERIPH
            CODE    07DCH     0001H     UNIT         ?PR?ISR_EP8EFLAG?PERIPH
            CODE    07DDH     0001H     UNIT         ?PR?ISR_EP2FFLAG?PERIPH
            CODE    07DEH     0001H     UNIT         ?PR?ISR_EP4FFLAG?PERIPH
            CODE    07DFH     0001H     UNIT         ?PR?ISR_EP6FFLAG?PERIPH
            CODE    07E0H     0001H     UNIT         ?PR?ISR_EP8FFLAG?PERIPH
            CODE    07E1H     0001H     UNIT         ?PR?ISR_GPIFCOMPLETE?PERIPH
            CODE    07E2H     0001H     UNIT         ?PR?ISR_GPIFWAVEFORM?PERIPH



OVERLAY MAP OF MODULE:   ..\output\usb (FW)


SEGMENT                                      BIT_GROUP          DATA_GROUP 
  +--> CALLED SEGMENT                     START    LENGTH     START    LENGTH
-----------------------------------------------------------------------------
?C_C51STARTUP                             -----    -----      -----    -----
  +--> ?PR?MAIN?FW

?PR?MAIN?FW                               -----    -----      0008H    0010H
  +--> ?PR?TD_INIT?PERIPH
BL51 BANKED LINKER/LOCATER V6.22                                                      05/10/2018  21:55:46  PAGE 7


  +--> ?PR?EZUSB_DISCON?DISCON
  +--> ?PR?TD_POLL?PERIPH
  +--> ?PR?SETUPCOMMAND?FW
  +--> ?PR?TD_SUSPEND?PERIPH
  +--> ?PR?EZUSB_RESUME?RESUME
  +--> ?PR?TD_RESUME?PERIPH

?PR?EZUSB_DISCON?DISCON                   0020H.4  0000H.1    -----    -----
  +--> ?PR?_EZUSB_DELAY?DELAY

?PR?_EZUSB_DELAY?DELAY                    -----    -----      0018H    0002H

?PR?SETUPCOMMAND?FW                       -----    -----      -----    -----
  +--> ?PR?DR_GETDESCRIPTOR?PERIPH
  +--> ?PR?HIGHSPEEDCAPABLE?FW
  +--> ?PR?_EZUSB_GETSTRINGDSCR?GET_STRD
  +--> ?PR?DR_GETINTERFACE?PERIPH
  +--> ?PR?DR_SETINTERFACE?PERIPH
  +--> ?PR?DR_SETCONFIGURATION?PERIPH
  +--> ?PR?DR_GETCONFIGURATION?PERIPH
  +--> ?PR?DR_GETSTATUS?PERIPH
  +--> ?CO?FW
  +--> ?PR?DR_CLEARFEATURE?PERIPH
  +--> ?PR?DR_SETFEATURE?PERIPH
  +--> ?PR?DR_VENDORCMND?PERIPH

?PR?EZUSB_RESUME?RESUME                   -----    -----      -----    -----
  +--> ?PR?_EZUSB_DELAY?DELAY



SYMBOL TABLE OF MODULE:  ..\output\usb (FW)

  VALUE           TYPE          NAME
  ----------------------------------

  -------         MODULE        FW
  C:0000H         SYMBOL        _ICE_DUMMY_
  B:00A8H.7       PUBLIC        EA
  B:0020H.0       PUBLIC        Rwuen
  B:0020H.1       PUBLIC        GotSUD
  C:03F5H         PUBLIC        EPCS_Offset_Lookup_Table
  C:0046H         PUBLIC        HighSpeedCapable
  C:028EH         PUBLIC        main
  B:00E8H.0       PUBLIC        EUSB
  C:07B3H         PUBLIC        resume_isr
  D:0021H         PUBLIC        pHighSpeedConfigDscr
  D:0023H         PUBLIC        pDeviceDscr
  C:0056H         PUBLIC        SetupCommand
  D:0025H         PUBLIC        pConfigDscr
  D:0027H         PUBLIC        pOtherConfigDscr
  D:0029H         PUBLIC        pFullSpeedConfigDscr
  B:0020H.2       PUBLIC        Selfpwr
  D:002BH         PUBLIC        pDeviceQualDscr
  D:00D8H         PUBLIC        EICON
  D:008EH         PUBLIC        CKCON
  D:002DH         PUBLIC        pStringDscr
BL51 BANKED LINKER/LOCATER V6.22                                                      05/10/2018  21:55:46  PAGE 8


  B:0020H.3       PUBLIC        Sleep
  -------         PROC          MAIN
  -------         DO            
  D:0008H         SYMBOL        i
  D:0006H         SYMBOL        offset
  D:000CH         SYMBOL        DevDescrLen
  D:0010H         SYMBOL        j
  D:0014H         SYMBOL        IntDescrAddr
  D:0016H         SYMBOL        ExtDescrAddr
  -------         ENDDO         
  C:028EH         LINE#         88
  C:028EH         LINE#         89
  C:028EH         LINE#         93
  C:0297H         LINE#         98
  C:0299H         LINE#         99
  C:029BH         LINE#         100
  C:029DH         LINE#         101
  C:029FH         LINE#         104
  C:02A2H         LINE#         113
  C:02AAH         LINE#         114
  C:02B0H         LINE#         115
  C:02B6H         LINE#         116
  C:02BCH         LINE#         117
  C:02C2H         LINE#         124
  C:02CAH         LINE#         125
  C:02CAH         LINE#         127
  C:02D0H         LINE#         128
  C:02D4H         LINE#         129
  C:02ECH         LINE#         130
  C:030AH         LINE#         131
  C:033DH         LINE#         134
  C:0343H         LINE#         135
  C:034DH         LINE#         136
  C:0358H         LINE#         137
  C:0363H         LINE#         138
  C:036EH         LINE#         139
  C:0379H         LINE#         140
  C:0384H         LINE#         141
  C:038FH         LINE#         142
  C:038FH         LINE#         144
  C:0391H         LINE#         145
  C:0394H         LINE#         147
  C:039BH         LINE#         149
  C:03A2H         LINE#         150
  C:03A4H         LINE#         156
  C:03ABH         LINE#         157
  C:03ABH         LINE#         158
  C:03B0H         LINE#         159
  C:03B0H         LINE#         165
  C:03B7H         LINE#         167
  C:03BAH         LINE#         170
  C:03BCH         LINE#         173
  C:03BCH         LINE#         174
  C:03BCH         LINE#         176
  C:03BFH         LINE#         179
  C:03C2H         LINE#         180
  C:03C2H         LINE#         181
BL51 BANKED LINKER/LOCATER V6.22                                                      05/10/2018  21:55:46  PAGE 9


  C:03C5H         LINE#         182
  C:03C7H         LINE#         183
  C:03C7H         LINE#         190
  C:03CAH         LINE#         191
  C:03CAH         LINE#         192
  C:03CFH         LINE#         193
  C:03CFH         LINE#         194
  C:03D1H         LINE#         196
  C:03D1H         LINE#         197
  C:03D4H         LINE#         198
  C:03D4H         LINE#         199
  C:03EDH         LINE#         204
  C:03F0H         LINE#         205
  C:03F3H         LINE#         206
  C:03F3H         LINE#         207
  C:03F3H         LINE#         209
  -------         ENDPROC       MAIN
  -------         PROC          HIGHSPEEDCAPABLE
  C:0046H         LINE#         212
  C:0046H         LINE#         213
  C:0046H         LINE#         218
  C:004DH         LINE#         219
  C:004FH         LINE#         221
  C:0050H         LINE#         222
  -------         ENDPROC       HIGHSPEEDCAPABLE
  -------         PROC          SETUPCOMMAND
  -------         DO            
  D:0001H         SYMBOL        dscr_ptr
  -------         ENDDO         
  C:0056H         LINE#         225
  C:0056H         LINE#         226
  C:0056H         LINE#         229
  C:008CH         LINE#         230
  C:008CH         LINE#         231
  C:008CH         LINE#         232
  C:0094H         LINE#         233
  C:00AAH         LINE#         234
  C:00AAH         LINE#         235
  C:00AAH         LINE#         236
  C:00B0H         LINE#         237
  C:00B2H         LINE#         238
  C:00B4H         LINE#         239
  C:00B4H         LINE#         242
  C:00B9H         LINE#         243
  C:00B9H         LINE#         244
  C:00BFH         LINE#         245
  C:00C1H         LINE#         246
  C:00C3H         LINE#         252
  C:00C3H         LINE#         253
  C:00C9H         LINE#         254
  C:00CBH         LINE#         255
  C:00CDH         LINE#         256
  C:00CDH         LINE#         257
  C:00D3H         LINE#         258
  C:00D5H         LINE#         259
  C:00D7H         LINE#         260
  C:00D7H         LINE#         261
BL51 BANKED LINKER/LOCATER V6.22                                                      05/10/2018  21:55:46  PAGE 10


  C:00EAH         LINE#         262
  C:00EAH         LINE#         263
  C:00EFH         LINE#         264
  C:00F4H         LINE#         265
  C:00F7H         LINE#         267
  C:00F7H         LINE#         268
  C:00FAH         LINE#         269
  C:00FAH         LINE#         270
  C:00FAH         LINE#         271
  C:00FAH         LINE#         272
  C:00FDH         LINE#         273
  C:00FDH         LINE#         274
  C:0100H         LINE#         275
  C:0103H         LINE#         276
  C:0103H         LINE#         277
  C:0106H         LINE#         278
  C:0109H         LINE#         279
  C:0109H         LINE#         280
  C:010CH         LINE#         281
  C:010FH         LINE#         282
  C:010FH         LINE#         283
  C:0112H         LINE#         284
  C:0115H         LINE#         285
  C:0115H         LINE#         286
  C:011DH         LINE#         287
  C:012CH         LINE#         288
  C:012CH         LINE#         289
  C:012CH         LINE#         290
  C:0138H         LINE#         291
  C:0138H         LINE#         292
  C:0138H         LINE#         293
  C:0138H         LINE#         294
  C:013AH         LINE#         295
  C:013AH         LINE#         296
  C:013FH         LINE#         297
  C:013FH         LINE#         298
  C:013FH         LINE#         299
  C:013FH         LINE#         300
  C:0141H         LINE#         301
  C:0141H         LINE#         302
  C:017FH         LINE#         303
  C:0182H         LINE#         304
  C:0186H         LINE#         305
  C:018CH         LINE#         306
  C:018FH         LINE#         307
  C:018FH         LINE#         308
  C:018FH         LINE#         309
  C:018FH         LINE#         310
  C:0192H         LINE#         311
  C:0192H         LINE#         312
  C:019AH         LINE#         313
  C:01A9H         LINE#         314
  C:01A9H         LINE#         315
  C:01A9H         LINE#         316
  C:01B0H         LINE#         317
  C:01B5H         LINE#         319
  C:01B5H         LINE#         320
BL51 BANKED LINKER/LOCATER V6.22                                                      05/10/2018  21:55:46  PAGE 11


  C:01B8H         LINE#         321
  C:01B8H         LINE#         322
  C:01BEH         LINE#         323
  C:01BEH         LINE#         324
  C:01F9H         LINE#         325
  C:0211H         LINE#         326
  C:0213H         LINE#         328
  C:0213H         LINE#         329
  C:0215H         LINE#         330
  C:0215H         LINE#         331
  C:0215H         LINE#         332
  C:0215H         LINE#         333
  C:021AH         LINE#         334
  C:0226H         LINE#         335
  C:0226H         LINE#         336
  C:0226H         LINE#         337
  C:022DH         LINE#         338
  C:0231H         LINE#         339
  C:0238H         LINE#         345
  C:023AH         LINE#         347
  C:023AH         LINE#         348
  C:023CH         LINE#         349
  C:023CH         LINE#         350
  C:0273H         LINE#         351
  C:0275H         LINE#         352
  C:0275H         LINE#         353
  C:0278H         LINE#         354
  C:0278H         LINE#         355
  C:027AH         LINE#         356
  C:027AH         LINE#         357
  C:027FH         LINE#         358
  C:0286H         LINE#         359
  C:0286H         LINE#         362
  C:028DH         LINE#         363
  -------         ENDPROC       SETUPCOMMAND
  -------         PROC          RESUME_ISR
  C:07B3H         LINE#         366
  C:07B3H         LINE#         368
  C:07B6H         LINE#         369
  -------         ENDPROC       RESUME_ISR
  -------         ENDMOD        FW

  -------         MODULE        PERIPH
  C:0000H         SYMBOL        _ICE_DUMMY_
  C:07D0H         PUBLIC        ISR_Errorlimit
  C:07A3H         PUBLIC        DR_SetConfiguration
  D:001AH         PUBLIC        AlternateSetting
  C:07C1H         PUBLIC        ISR_Ep0in
  C:07C3H         PUBLIC        ISR_Ep1in
  C:059CH         PUBLIC        TD_Init
  C:07C2H         PUBLIC        ISR_Ep0out
  C:07C4H         PUBLIC        ISR_Ep1out
  C:0032H         PUBLIC        TD_Poll
  C:07E1H         PUBLIC        ISR_GpifComplete
  C:07B9H         PUBLIC        DR_GetStatus
  C:07CAH         PUBLIC        ISR_Ep0pingnak
  C:07CBH         PUBLIC        ISR_Ep1pingnak
BL51 BANKED LINKER/LOCATER V6.22                                                      05/10/2018  21:55:46  PAGE 12


  C:07E2H         PUBLIC        ISR_GpifWaveform
  C:07D1H         PUBLIC        ISR_Ep2piderror
  C:07CCH         PUBLIC        ISR_Ep2pingnak
  C:07D2H         PUBLIC        ISR_Ep4piderror
  C:07CDH         PUBLIC        ISR_Ep4pingnak
  C:07D3H         PUBLIC        ISR_Ep6piderror
  C:07CEH         PUBLIC        ISR_Ep6pingnak
  C:07D4H         PUBLIC        ISR_Ep8piderror
  C:07CFH         PUBLIC        ISR_Ep8pingnak
  D:0091H         PUBLIC        EXIF
  C:0780H         PUBLIC        DR_GetInterface
  C:07BBH         PUBLIC        DR_ClearFeature
  C:07D9H         PUBLIC        ISR_Ep2eflag
  C:07DDH         PUBLIC        ISR_Ep2fflag
  C:07DAH         PUBLIC        ISR_Ep4eflag
  C:07ABH         PUBLIC        DR_SetInterface
  C:07DEH         PUBLIC        ISR_Ep4fflag
  C:07DBH         PUBLIC        ISR_Ep6eflag
  C:07DFH         PUBLIC        ISR_Ep6fflag
  C:07B7H         PUBLIC        DR_GetDescriptor
  C:07DCH         PUBLIC        ISR_Ep8eflag
  C:07E0H         PUBLIC        ISR_Ep8fflag
  C:07D5H         PUBLIC        ISR_Ep2pflag
  C:07D6H         PUBLIC        ISR_Ep4pflag
  C:07D7H         PUBLIC        ISR_Ep6pflag
  C:07D8H         PUBLIC        ISR_Ep8pflag
  C:0712H         PUBLIC        ISR_Sudav
  C:0051H         PUBLIC        TD_Suspend
  D:001BH         PUBLIC        Configuration
  C:0042H         PUBLIC        ISR_Ep0ack
  C:0623H         PUBLIC        ISR_Highspeed
  C:0742H         PUBLIC        ISR_Sutok
  C:07C9H         PUBLIC        ISR_Ibn
  C:07C5H         PUBLIC        ISR_Ep2inout
  C:07C6H         PUBLIC        ISR_Ep4inout
  C:07BFH         PUBLIC        DR_VendorCmnd
  C:04FEH         PUBLIC        TD_Resume
  C:07C7H         PUBLIC        ISR_Ep6inout
  C:03FFH         PUBLIC        ISR_Stub
  C:07C8H         PUBLIC        ISR_Ep8inout
  C:0660H         PUBLIC        ISR_Ures
  C:07BDH         PUBLIC        DR_SetFeature
  C:0758H         PUBLIC        ISR_Sof
  C:076EH         PUBLIC        DR_GetConfiguration
  C:072AH         PUBLIC        ISR_Susp
  -------         PROC          TD_INIT
  C:059CH         LINE#         53
  C:059CH         LINE#         54
  C:059CH         LINE#         55
  C:05A5H         LINE#         57
  C:05ABH         LINE#         59
  C:05B1H         LINE#         60
  C:05B4H         LINE#         61
  C:05BAH         LINE#         63
  C:05BDH         LINE#         64
  C:05C4H         LINE#         66
  C:05CAH         LINE#         67
BL51 BANKED LINKER/LOCATER V6.22                                                      05/10/2018  21:55:46  PAGE 13


  C:05CDH         LINE#         68
  C:05D1H         LINE#         69
  C:05D4H         LINE#         70
  C:05DAH         LINE#         71
  C:05DDH         LINE#         72
  C:05E3H         LINE#         75
  C:05E6H         LINE#         76
  C:05ECH         LINE#         77
  C:05EFH         LINE#         78
  C:05F2H         LINE#         79
  C:05F5H         LINE#         80
  C:05F8H         LINE#         81
  C:05FBH         LINE#         82
  C:05FEH         LINE#         83
  C:0601H         LINE#         84
  C:0604H         LINE#         85
  C:0607H         LINE#         86
  C:0609H         LINE#         91
  C:060CH         LINE#         92
  C:0610H         LINE#         94
  C:0613H         LINE#         95
  C:0616H         LINE#         96
  C:0619H         LINE#         97
  C:061FH         LINE#         98
  C:0622H         LINE#         99
  -------         ENDPROC       TD_INIT
  -------         PROC          TD_POLL
  C:0032H         LINE#         101
  C:0032H         LINE#         102
  C:0032H         LINE#         103
  -------         ENDPROC       TD_POLL
  -------         PROC          TD_SUSPEND
  C:0051H         LINE#         105
  C:0051H         LINE#         106
  C:0051H         LINE#         107
  C:0052H         LINE#         108
  -------         ENDPROC       TD_SUSPEND
  -------         PROC          TD_RESUME
  C:04FEH         LINE#         110
  C:04FEH         LINE#         111
  C:04FEH         LINE#         112
  C:04FFH         LINE#         113
  -------         ENDPROC       TD_RESUME
  -------         PROC          DR_GETDESCRIPTOR
  C:07B7H         LINE#         120
  C:07B7H         LINE#         121
  C:07B7H         LINE#         122
  C:07B8H         LINE#         123
  -------         ENDPROC       DR_GETDESCRIPTOR
  -------         PROC          DR_SETCONFIGURATION
  C:07A3H         LINE#         125
  C:07A3H         LINE#         126
  C:07A3H         LINE#         127
  C:07A9H         LINE#         128
  C:07AAH         LINE#         129
  -------         ENDPROC       DR_SETCONFIGURATION
  -------         PROC          DR_GETCONFIGURATION
BL51 BANKED LINKER/LOCATER V6.22                                                      05/10/2018  21:55:46  PAGE 14


  C:076EH         LINE#         131
  C:076EH         LINE#         132
  C:076EH         LINE#         133
  C:0774H         LINE#         134
  C:0779H         LINE#         135
  C:077EH         LINE#         136
  C:077FH         LINE#         137
  -------         ENDPROC       DR_GETCONFIGURATION
  -------         PROC          DR_SETINTERFACE
  C:07ABH         LINE#         139
  C:07ABH         LINE#         140
  C:07ABH         LINE#         141
  C:07B1H         LINE#         142
  C:07B2H         LINE#         143
  -------         ENDPROC       DR_SETINTERFACE
  -------         PROC          DR_GETINTERFACE
  C:0780H         LINE#         145
  C:0780H         LINE#         146
  C:0780H         LINE#         147
  C:0786H         LINE#         148
  C:078BH         LINE#         149
  C:0790H         LINE#         150
  C:0791H         LINE#         151
  -------         ENDPROC       DR_GETINTERFACE
  -------         PROC          DR_GETSTATUS
  C:07B9H         LINE#         153
  C:07B9H         LINE#         154
  C:07B9H         LINE#         155
  C:07BAH         LINE#         156
  -------         ENDPROC       DR_GETSTATUS
  -------         PROC          DR_CLEARFEATURE
  C:07BBH         LINE#         158
  C:07BBH         LINE#         159
  C:07BBH         LINE#         160
  C:07BCH         LINE#         161
  -------         ENDPROC       DR_CLEARFEATURE
  -------         PROC          DR_SETFEATURE
  C:07BDH         LINE#         163
  C:07BDH         LINE#         164
  C:07BDH         LINE#         165
  C:07BEH         LINE#         166
  -------         ENDPROC       DR_SETFEATURE
  -------         PROC          DR_VENDORCMND
  C:07BFH         LINE#         168
  C:07BFH         LINE#         169
  C:07BFH         LINE#         170
  C:07C0H         LINE#         171
  -------         ENDPROC       DR_VENDORCMND
  -------         PROC          ISR_SUDAV
  C:0712H         LINE#         179
  C:0718H         LINE#         181
  C:071AH         LINE#         182
  C:071DH         LINE#         183
  C:0723H         LINE#         184
  -------         ENDPROC       ISR_SUDAV
  -------         PROC          ISR_SUTOK
  C:0742H         LINE#         187
BL51 BANKED LINKER/LOCATER V6.22                                                      05/10/2018  21:55:46  PAGE 15


  C:0748H         LINE#         189
  C:074BH         LINE#         190
  C:0751H         LINE#         191
  -------         ENDPROC       ISR_SUTOK
  -------         PROC          ISR_SOF
  C:0758H         LINE#         193
  C:075EH         LINE#         195
  C:0761H         LINE#         196
  C:0767H         LINE#         197
  -------         ENDPROC       ISR_SOF
  -------         PROC          ISR_URES
  C:0660H         LINE#         199
  C:0666H         LINE#         202
  C:066CH         LINE#         203
  C:0676H         LINE#         204
  C:067CH         LINE#         205
  C:0686H         LINE#         207
  C:0689H         LINE#         208
  C:068FH         LINE#         209
  -------         ENDPROC       ISR_URES
  -------         PROC          ISR_SUSP
  C:072AH         LINE#         211
  C:0730H         LINE#         213
  C:0732H         LINE#         214
  C:0735H         LINE#         215
  C:073BH         LINE#         216
  -------         ENDPROC       ISR_SUSP
  -------         PROC          ISR_HIGHSPEED
  C:0623H         LINE#         218
  C:0629H         LINE#         220
  C:0630H         LINE#         221
  C:0630H         LINE#         222
  C:0636H         LINE#         223
  C:0640H         LINE#         224
  C:0646H         LINE#         225
  C:0650H         LINE#         226
  C:0650H         LINE#         228
  C:0653H         LINE#         229
  C:0659H         LINE#         230
  -------         ENDPROC       ISR_HIGHSPEED
  -------         PROC          ISR_EP0ACK
  C:0042H         LINE#         231
  C:0042H         LINE#         233
  -------         ENDPROC       ISR_EP0ACK
  -------         PROC          ISR_STUB
  C:03FFH         LINE#         234
  C:03FFH         LINE#         236
  -------         ENDPROC       ISR_STUB
  -------         PROC          ISR_EP0IN
  C:07C1H         LINE#         237
  C:07C1H         LINE#         239
  -------         ENDPROC       ISR_EP0IN
  -------         PROC          ISR_EP0OUT
  C:07C2H         LINE#         240
  C:07C2H         LINE#         242
  -------         ENDPROC       ISR_EP0OUT
  -------         PROC          ISR_EP1IN
BL51 BANKED LINKER/LOCATER V6.22                                                      05/10/2018  21:55:46  PAGE 16


  C:07C3H         LINE#         243
  C:07C3H         LINE#         245
  -------         ENDPROC       ISR_EP1IN
  -------         PROC          ISR_EP1OUT
  C:07C4H         LINE#         246
  C:07C4H         LINE#         248
  -------         ENDPROC       ISR_EP1OUT
  -------         PROC          ISR_EP2INOUT
  C:07C5H         LINE#         249
  C:07C5H         LINE#         251
  -------         ENDPROC       ISR_EP2INOUT
  -------         PROC          ISR_EP4INOUT
  C:07C6H         LINE#         252
  C:07C6H         LINE#         254
  -------         ENDPROC       ISR_EP4INOUT
  -------         PROC          ISR_EP6INOUT
  C:07C7H         LINE#         255
  C:07C7H         LINE#         257
  -------         ENDPROC       ISR_EP6INOUT
  -------         PROC          ISR_EP8INOUT
  C:07C8H         LINE#         258
  C:07C8H         LINE#         260
  -------         ENDPROC       ISR_EP8INOUT
  -------         PROC          ISR_IBN
  C:07C9H         LINE#         261
  C:07C9H         LINE#         263
  -------         ENDPROC       ISR_IBN
  -------         PROC          ISR_EP0PINGNAK
  C:07CAH         LINE#         264
  C:07CAH         LINE#         266
  -------         ENDPROC       ISR_EP0PINGNAK
  -------         PROC          ISR_EP1PINGNAK
  C:07CBH         LINE#         267
  C:07CBH         LINE#         269
  -------         ENDPROC       ISR_EP1PINGNAK
  -------         PROC          ISR_EP2PINGNAK
  C:07CCH         LINE#         270
  C:07CCH         LINE#         272
  -------         ENDPROC       ISR_EP2PINGNAK
  -------         PROC          ISR_EP4PINGNAK
  C:07CDH         LINE#         273
  C:07CDH         LINE#         275
  -------         ENDPROC       ISR_EP4PINGNAK
  -------         PROC          ISR_EP6PINGNAK
  C:07CEH         LINE#         276
  C:07CEH         LINE#         278
  -------         ENDPROC       ISR_EP6PINGNAK
  -------         PROC          ISR_EP8PINGNAK
  C:07CFH         LINE#         279
  C:07CFH         LINE#         281
  -------         ENDPROC       ISR_EP8PINGNAK
  -------         PROC          ISR_ERRORLIMIT
  C:07D0H         LINE#         282
  C:07D0H         LINE#         284
  -------         ENDPROC       ISR_ERRORLIMIT
  -------         PROC          ISR_EP2PIDERROR
  C:07D1H         LINE#         285
BL51 BANKED LINKER/LOCATER V6.22                                                      05/10/2018  21:55:46  PAGE 17


  C:07D1H         LINE#         287
  -------         ENDPROC       ISR_EP2PIDERROR
  -------         PROC          ISR_EP4PIDERROR
  C:07D2H         LINE#         288
  C:07D2H         LINE#         290
  -------         ENDPROC       ISR_EP4PIDERROR
  -------         PROC          ISR_EP6PIDERROR
  C:07D3H         LINE#         291
  C:07D3H         LINE#         293
  -------         ENDPROC       ISR_EP6PIDERROR
  -------         PROC          ISR_EP8PIDERROR
  C:07D4H         LINE#         294
  C:07D4H         LINE#         296
  -------         ENDPROC       ISR_EP8PIDERROR
  -------         PROC          ISR_EP2PFLAG
  C:07D5H         LINE#         297
  C:07D5H         LINE#         299
  -------         ENDPROC       ISR_EP2PFLAG
  -------         PROC          ISR_EP4PFLAG
  C:07D6H         LINE#         300
  C:07D6H         LINE#         302
  -------         ENDPROC       ISR_EP4PFLAG
  -------         PROC          ISR_EP6PFLAG
  C:07D7H         LINE#         303
  C:07D7H         LINE#         305
  -------         ENDPROC       ISR_EP6PFLAG
  -------         PROC          ISR_EP8PFLAG
  C:07D8H         LINE#         306
  C:07D8H         LINE#         308
  -------         ENDPROC       ISR_EP8PFLAG
  -------         PROC          ISR_EP2EFLAG
  C:07D9H         LINE#         309
  C:07D9H         LINE#         311
  -------         ENDPROC       ISR_EP2EFLAG
  -------         PROC          ISR_EP4EFLAG
  C:07DAH         LINE#         312
  C:07DAH         LINE#         314
  -------         ENDPROC       ISR_EP4EFLAG
  -------         PROC          ISR_EP6EFLAG
  C:07DBH         LINE#         315
  C:07DBH         LINE#         317
  -------         ENDPROC       ISR_EP6EFLAG
  -------         PROC          ISR_EP8EFLAG
  C:07DCH         LINE#         318
  C:07DCH         LINE#         320
  -------         ENDPROC       ISR_EP8EFLAG
  -------         PROC          ISR_EP2FFLAG
  C:07DDH         LINE#         321
  C:07DDH         LINE#         323
  -------         ENDPROC       ISR_EP2FFLAG
  -------         PROC          ISR_EP4FFLAG
  C:07DEH         LINE#         324
  C:07DEH         LINE#         326
  -------         ENDPROC       ISR_EP4FFLAG
  -------         PROC          ISR_EP6FFLAG
  C:07DFH         LINE#         327
  C:07DFH         LINE#         329
BL51 BANKED LINKER/LOCATER V6.22                                                      05/10/2018  21:55:46  PAGE 18


  -------         ENDPROC       ISR_EP6FFLAG
  -------         PROC          ISR_EP8FFLAG
  C:07E0H         LINE#         330
  C:07E0H         LINE#         332
  -------         ENDPROC       ISR_EP8FFLAG
  -------         PROC          ISR_GPIFCOMPLETE
  C:07E1H         LINE#         333
  C:07E1H         LINE#         335
  -------         ENDPROC       ISR_GPIFCOMPLETE
  -------         PROC          ISR_GPIFWAVEFORM
  C:07E2H         LINE#         336
  C:07E2H         LINE#         338
  -------         ENDPROC       ISR_GPIFWAVEFORM
  -------         ENDMOD        PERIPH

  -------         MODULE        DSCR
  C:0500H         SEGMENT       DSCR
  C:0500H         PUBLIC        DEVICEDSCR
  C:0512H         PUBLIC        DEVICEQUALDSCR
  C:054AH         PUBLIC        FULLSPEEDCONFIGDSCR
  C:051CH         PUBLIC        HIGHSPEEDCONFIGDSCR
  C:0578H         PUBLIC        STRINGDSCR
  C:059AH         PUBLIC        USERDSCR
  N:0002H         SYMBOL        DSCR_CONFIG
  N:0009H         SYMBOL        DSCR_CONFIG_LEN
  N:0001H         SYMBOL        DSCR_DEVICE
  N:0012H         SYMBOL        DSCR_DEVICE_LEN
  N:0006H         SYMBOL        DSCR_DEVQUAL
  N:000AH         SYMBOL        DSCR_DEVQUAL_LEN
  N:0005H         SYMBOL        DSCR_ENDPNT
  N:0007H         SYMBOL        DSCR_ENDPNT_LEN
  N:0004H         SYMBOL        DSCR_INTRFC
  N:0009H         SYMBOL        DSCR_INTRFC_LEN
  N:0003H         SYMBOL        DSCR_STRING
  N:0002H         SYMBOL        ET_BULK
  N:0000H         SYMBOL        ET_CONTROL
  N:0003H         SYMBOL        ET_INT
  N:0001H         SYMBOL        ET_ISO
  C:0578H         SYMBOL        FULLSPEEDCONFIGDSCREND
  C:054AH         SYMBOL        HIGHSPEEDCONFIGDSCREND
  C:0578H         SYMBOL        STRINGDSCR0
  C:057CH         SYMBOL        STRINGDSCR0END
  C:057CH         SYMBOL        STRINGDSCR1
  C:058CH         SYMBOL        STRINGDSCR1END
  C:058CH         SYMBOL        STRINGDSCR2
  C:059AH         SYMBOL        STRINGDSCR2END
  -------         ENDMOD        DSCR

  -------         MODULE        RESUME
  C:0000H         SYMBOL        _ICE_DUMMY_
  C:0696H         PUBLIC        EZUSB_Resume
  -------         PROC          EZUSB_RESUME
  C:0696H         LINE#         38
  C:0696H         LINE#         39
  C:0696H         LINE#         40
  C:06ACH         LINE#         42
  C:06ACH         LINE#         43
BL51 BANKED LINKER/LOCATER V6.22                                                      05/10/2018  21:55:46  PAGE 19


  C:06B3H         LINE#         44
  C:06BAH         LINE#         45
  C:06C1H         LINE#         46
  C:06C1H         LINE#         47
  -------         ENDPROC       EZUSB_RESUME
  -------         ENDMOD        RESUME

  -------         MODULE        DISCON
  C:0000H         SYMBOL        _ICE_DUMMY_
  D:0091H         PUBLIC        EXIF
  C:0003H         PUBLIC        EZUSB_Discon
  -------         PROC          EZUSB_DISCON
  B:0020H.4       SYMBOL        renum
  C:0003H         LINE#         39
  C:0003H         LINE#         40
  C:0003H         LINE#         42
  C:0006H         LINE#         43
  C:000FH         LINE#         45
  C:0016H         LINE#         47
  C:001DH         LINE#         49
  C:0023H         LINE#         50
  C:0027H         LINE#         51
  C:002AH         LINE#         53
  C:0031H         LINE#         54
  -------         ENDPROC       EZUSB_DISCON
  -------         ENDMOD        DISCON

  -------         MODULE        EZREGS
  C:0000H         SYMBOL        _ICE_DUMMY_
  X:E652H         PUBLIC        EP4FIFOIE
  X:E668H         PUBLIC        INTSETUP
  X:E600H         PUBLIC        CPUCS
  X:E654H         PUBLIC        EP6FIFOIE
  X:E680H         PUBLIC        USBCS
  X:E65FH         PUBLIC        EPIRQ
  X:E656H         PUBLIC        EP8FIFOIE
  X:E6F2H         PUBLIC        XGPIFSGLDATLNOX
  X:E6C0H         PUBLIC        GPIFWFSELECT
  X:E6F0H         PUBLIC        XGPIFSGLDATH
  X:E605H         PUBLIC        BREAKPT
  X:E609H         PUBLIC        FIFOPINPOLAR
  X:E640H         PUBLIC        EP2ISOINPKTS
  X:E678H         PUBLIC        I2CS
  X:E610H         PUBLIC        EP1OUTCFG
  X:E6F9H         PUBLIC        TESTCFG
  X:E641H         PUBLIC        EP4ISOINPKTS
  X:E68AH         PUBLIC        EP0BCH
  X:E661H         PUBLIC        GPIFIRQ
  X:E642H         PUBLIC        EP6ISOINPKTS
  X:E690H         PUBLIC        EP2BCH
  X:E643H         PUBLIC        EP8ISOINPKTS
  X:E694H         PUBLIC        EP4BCH
  X:E68BH         PUBLIC        EP0BCL
  X:E612H         PUBLIC        EP2CFG
  X:E698H         PUBLIC        EP6BCH
  X:E691H         PUBLIC        EP2BCL
  X:E613H         PUBLIC        EP4CFG
BL51 BANKED LINKER/LOCATER V6.22                                                      05/10/2018  21:55:46  PAGE 20


  X:E6A7H         PUBLIC        EP2FIFOFLGS
  X:E69CH         PUBLIC        EP8BCH
  X:E695H         PUBLIC        EP4BCL
  X:E628H         PUBLIC        ECCCFG
  X:E614H         PUBLIC        EP6CFG
  X:E6A8H         PUBLIC        EP4FIFOFLGS
  X:E699H         PUBLIC        EP6BCL
  X:E780H         PUBLIC        EP1OUTBUF
  X:E67BH         PUBLIC        XAUTODAT1
  X:E615H         PUBLIC        EP8CFG
  X:E6A9H         PUBLIC        EP6FIFOFLGS
  X:E69DH         PUBLIC        EP8BCL
  X:E67CH         PUBLIC        XAUTODAT2
  X:E684H         PUBLIC        USBFRAMEH
  X:E6F5H         PUBLIC        GPIFABORT
  X:E6AAH         PUBLIC        EP8FIFOFLGS
  X:E6F8H         PUBLIC        DBUG
  X:E740H         PUBLIC        EP0BUF
  X:E6CBH         PUBLIC        FLOWSTB
  X:E65EH         PUBLIC        EPIE
  X:E685H         PUBLIC        USBFRAMEL
  X:E681H         PUBLIC        SUSPEND
  X:E60CH         PUBLIC        GPIFHOLDAMOUNT
  X:E6D4H         PUBLIC        EP2GPIFTRIG
  X:E6C7H         PUBLIC        FLOWLOGIC
  X:E6DCH         PUBLIC        EP4GPIFTRIG
  X:E604H         PUBLIC        FIFORESET
  X:E6E4H         PUBLIC        EP6GPIFTRIG
  X:E6C2H         PUBLIC        GPIFIDLECTL
  X:E6FAH         PUBLIC        USBTEST
  X:E6B3H         PUBLIC        SUDPTRH
  X:E6ECH         PUBLIC        EP8GPIFTRIG
  X:E6D2H         PUBLIC        EP2GPIFFLGSEL
  X:E611H         PUBLIC        EP1INCFG
  X:E6B4H         PUBLIC        SUDPTRL
  X:E687H         PUBLIC        FNADDR
  X:E6DAH         PUBLIC        EP4GPIFFLGSEL
  X:E6D1H         PUBLIC        GPIFTCB0
  X:E6CDH         PUBLIC        FLOWSTBHPERIOD
  X:E6D0H         PUBLIC        GPIFTCB1
  X:E665H         PUBLIC        CLRERRCNT
  X:E6E2H         PUBLIC        EP6GPIFFLGSEL
  X:E6CFH         PUBLIC        GPIFTCB2
  X:E664H         PUBLIC        ERRCNTLIM
  X:E6CEH         PUBLIC        GPIFTCB3
  X:E6EAH         PUBLIC        EP8GPIFFLGSEL
  X:E660H         PUBLIC        GPIFIE
  X:E67FH         PUBLIC        UDMACRCQUAL
  X:E400H         PUBLIC        GPIF_WAVE_DATA
  X:E6CCH         PUBLIC        FLOWSTBEDGE
  X:E6ABH         PUBLIC        EP2FIFOBCH
  X:E7C0H         PUBLIC        EP1INBUF
  X:E6C6H         PUBLIC        FLOWSTATE
  X:E6ADH         PUBLIC        EP4FIFOBCH
  X:E6CAH         PUBLIC        FLOWHOLDOFF
  X:E618H         PUBLIC        EP2FIFOCFG
  X:E6AFH         PUBLIC        EP6FIFOBCH
BL51 BANKED LINKER/LOCATER V6.22                                                      05/10/2018  21:55:46  PAGE 21


  X:E6ACH         PUBLIC        EP2FIFOBCL
  X:E619H         PUBLIC        EP4FIFOCFG
  X:E6B1H         PUBLIC        EP8FIFOBCH
  X:E6AEH         PUBLIC        EP4FIFOBCL
  X:E649H         PUBLIC        OUTPKTEND
  X:E663H         PUBLIC        USBERRIRQ
  X:E61AH         PUBLIC        EP6FIFOCFG
  X:E6B0H         PUBLIC        EP6FIFOBCL
  X:E620H         PUBLIC        EP2AUTOINLENH
  X:E61BH         PUBLIC        EP8FIFOCFG
  X:E6B2H         PUBLIC        EP8FIFOBCL
  X:E68DH         PUBLIC        EP1OUTBC
  X:E622H         PUBLIC        EP4AUTOINLENH
  X:E666H         PUBLIC        INT2IVEC
  X:E659H         PUBLIC        IBNIRQ
  X:E6FBH         PUBLIC        CT1
  X:E6C4H         PUBLIC        GPIFADRH
  X:E65BH         PUBLIC        NAKIRQ
  X:E624H         PUBLIC        EP6AUTOINLENH
  X:E621H         PUBLIC        EP2AUTOINLENL
  X:E601H         PUBLIC        IFCONFIG
  X:E6FCH         PUBLIC        CT2
  X:E6B5H         PUBLIC        SUDPTRCTL
  X:E667H         PUBLIC        INT4IVEC
  X:E6FDH         PUBLIC        CT3
  X:E67DH         PUBLIC        UDMACRCH
  X:E626H         PUBLIC        EP8AUTOINLENH
  X:E623H         PUBLIC        EP4AUTOINLENL
  X:E6FEH         PUBLIC        CT4
  X:F000H         PUBLIC        EP2FIFOBUF
  X:E6C5H         PUBLIC        GPIFADRL
  X:E625H         PUBLIC        EP6AUTOINLENL
  X:E630H         PUBLIC        EP2FIFOPFH
  X:F400H         PUBLIC        EP4FIFOBUF
  X:E67EH         PUBLIC        UDMACRCL
  X:E627H         PUBLIC        EP8AUTOINLENL
  X:E6D3H         PUBLIC        EP2GPIFPFSTOP
  X:E683H         PUBLIC        TOGCTL
  X:E632H         PUBLIC        EP4FIFOPFH
  X:F800H         PUBLIC        EP6FIFOBUF
  X:E629H         PUBLIC        ECCRESET
  X:E6DBH         PUBLIC        EP4GPIFPFSTOP
  X:E634H         PUBLIC        EP6FIFOPFH
  X:E631H         PUBLIC        EP2FIFOPFL
  X:FC00H         PUBLIC        EP8FIFOBUF
  X:E60BH         PUBLIC        REVCTL
  X:E6E3H         PUBLIC        EP6GPIFPFSTOP
  X:E636H         PUBLIC        EP8FIFOPFH
  X:E633H         PUBLIC        EP4FIFOPFL
  X:E608H         PUBLIC        UART230
  X:E480H         PUBLIC        RES_WAVEDATA_END
  X:E6EBH         PUBLIC        EP8GPIFPFSTOP
  X:E679H         PUBLIC        I2DAT
  X:E635H         PUBLIC        EP6FIFOPFL
  X:E6A1H         PUBLIC        EP1OUTCS
  X:E637H         PUBLIC        EP8FIFOPFL
  X:E65DH         PUBLIC        USBIRQ
BL51 BANKED LINKER/LOCATER V6.22                                                      05/10/2018  21:55:46  PAGE 22


  X:E670H         PUBLIC        PORTACFG
  X:E671H         PUBLIC        PORTCCFG
  X:E651H         PUBLIC        EP2FIFOIRQ
  X:E602H         PUBLIC        PINFLAGSAB
  X:E6A0H         PUBLIC        EP0CS
  X:E6F4H         PUBLIC        GPIFREADYSTAT
  X:E6C3H         PUBLIC        GPIFCTLCFG
  X:E672H         PUBLIC        PORTECFG
  X:E653H         PUBLIC        EP4FIFOIRQ
  X:E6C1H         PUBLIC        GPIFIDLECS
  X:E6A3H         PUBLIC        EP2CS
  X:E509H         PUBLIC        GPCR2
  X:E67AH         PUBLIC        I2CTL
  X:E655H         PUBLIC        EP6FIFOIRQ
  X:E603H         PUBLIC        PINFLAGSCD
  X:E6A4H         PUBLIC        EP4CS
  X:E648H         PUBLIC        INPKTEND
  X:E657H         PUBLIC        EP8FIFOIRQ
  X:E6A5H         PUBLIC        EP6CS
  X:E6A6H         PUBLIC        EP8CS
  X:E68FH         PUBLIC        EP1INBC
  X:E662H         PUBLIC        USBERRIE
  X:E6C8H         PUBLIC        FLOWEQ0CTL
  X:E6C9H         PUBLIC        FLOWEQ1CTL
  X:E682H         PUBLIC        WAKEUPCS
  X:E6F1H         PUBLIC        XGPIFSGLDATLX
  X:E658H         PUBLIC        IBNIE
  X:E686H         PUBLIC        MICROFRAME
  X:E65AH         PUBLIC        NAKIE
  X:E6B8H         PUBLIC        SETUPDAT
  X:E62AH         PUBLIC        ECC1B0
  X:E62DH         PUBLIC        ECC2B0
  X:E62BH         PUBLIC        ECC1B1
  X:E6F3H         PUBLIC        GPIFREADYCFG
  X:E62EH         PUBLIC        ECC2B1
  X:E62CH         PUBLIC        ECC1B2
  X:E62FH         PUBLIC        ECC2B2
  X:E6A2H         PUBLIC        EP1INCS
  X:E606H         PUBLIC        BPADDRH
  X:E65CH         PUBLIC        USBIE
  X:E60AH         PUBLIC        REVID
  X:E607H         PUBLIC        BPADDRL
  X:E650H         PUBLIC        EP2FIFOIE
  -------         ENDMOD        EZREGS

  -------         MODULE        GET_STRD
  C:0000H         SYMBOL        _ICE_DUMMY_
  C:06C2H         PUBLIC        _EZUSB_GetStringDscr
  -------         PROC          _EZUSB_GETSTRINGDSCR
  D:0001H         SYMBOL        StrIdx
  -------         DO            
  D:0006H         SYMBOL        dscr
  -------         ENDDO         
  C:06C2H         LINE#         38
  C:06C4H         LINE#         39
  C:06C4H         LINE#         42
  C:06C8H         LINE#         44
BL51 BANKED LINKER/LOCATER V6.22                                                      05/10/2018  21:55:46  PAGE 23


  C:06D2H         LINE#         45
  C:06D2H         LINE#         46
  C:06D8H         LINE#         47
  C:06D9H         LINE#         48
  C:06E7H         LINE#         49
  C:06E9H         LINE#         51
  C:06ECH         LINE#         52
  -------         ENDPROC       _EZUSB_GETSTRINGDSCR
  -------         ENDMOD        GET_STRD

  -------         MODULE        SUSP
  C:06EDH         SEGMENT       EZUSB
  C:06EDH         PUBLIC        EZUSB_SUSP
  B:00D0H.6       SYMBOL        AC
  D:00E0H         SYMBOL        ACC
  D:009AH         SYMBOL        APTR1H
  D:009BH         SYMBOL        APTR1L
  D:009AH         SYMBOL        AUTOPTR1H
  D:009BH         SYMBOL        AUTOPTR1L
  D:009AH         SYMBOL        AUTOPTRH1
  D:009DH         SYMBOL        AUTOPTRH2
  D:009BH         SYMBOL        AUTOPTRL1
  D:009EH         SYMBOL        AUTOPTRL2
  D:00AFH         SYMBOL        AUTOPTRSETUP
  D:00F0H         SYMBOL        B
  X:E606H         SYMBOL        BPADDRH
  X:E607H         SYMBOL        BPADDRL
  X:E605H         SYMBOL        BREAKPT
  D:008EH         SYMBOL        CKCON
  X:E665H         SYMBOL        CLRERRCNT
  X:E600H         SYMBOL        CPUCS
  B:00C8H.0       SYMBOL        CP_RL2
  X:E6FBH         SYMBOL        CT1
  X:E6FCH         SYMBOL        CT2
  X:E6FDH         SYMBOL        CT3
  X:E6FEH         SYMBOL        CT4
  B:00D0H.7       SYMBOL        CY
  B:00C8H.1       SYMBOL        C_T2
  X:E6F8H         SYMBOL        DBUG
  D:0083H         SYMBOL        DPH
  D:0085H         SYMBOL        DPH1
  D:0082H         SYMBOL        DPL
  D:0084H         SYMBOL        DPL1
  D:0086H         SYMBOL        DPS
  B:00A8H.7       SYMBOL        EA
  X:E62AH         SYMBOL        ECC1B0
  X:E62BH         SYMBOL        ECC1B1
  X:E62CH         SYMBOL        ECC1B2
  X:E62DH         SYMBOL        ECC2B0
  X:E62EH         SYMBOL        ECC2B1
  X:E62FH         SYMBOL        ECC2B2
  X:E628H         SYMBOL        ECCCFG
  X:E629H         SYMBOL        ECCRESET
  B:00E8H.1       SYMBOL        EI2C
  D:00D8H         SYMBOL        EICON
  D:00E8H         SYMBOL        EIE
  B:00E8H.2       SYMBOL        EIEX4
BL51 BANKED LINKER/LOCATER V6.22                                                      05/10/2018  21:55:46  PAGE 24


  B:00E8H.3       SYMBOL        EIEX5
  B:00E8H.4       SYMBOL        EIEX6
  D:00F8H         SYMBOL        EIP
  B:00F8H.2       SYMBOL        EIPX4
  B:00F8H.3       SYMBOL        EIPX5
  B:00F8H.4       SYMBOL        EIPX6
  D:00BAH         SYMBOL        EP01STAT
  X:E68AH         SYMBOL        EP0BCH
  X:E68BH         SYMBOL        EP0BCL
  X:E740H         SYMBOL        EP0BUF
  X:E6A0H         SYMBOL        EP0CS
  X:E780H         SYMBOL        EP10UTBUF
  X:E68FH         SYMBOL        EP1INBC
  X:E7C0H         SYMBOL        EP1INBUF
  X:E611H         SYMBOL        EP1INCFG
  X:E6A2H         SYMBOL        EP1INCS
  X:E68DH         SYMBOL        EP1OUTBC
  X:E610H         SYMBOL        EP1OUTCFG
  X:E6A1H         SYMBOL        EP1OUTCS
  D:00AAH         SYMBOL        EP2468STAT
  D:00ABH         SYMBOL        EP24FIFOFLGS
  X:E620H         SYMBOL        EP2AUTOINLENH
  X:E621H         SYMBOL        EP2AUTOINLENL
  X:E690H         SYMBOL        EP2BCH
  X:E691H         SYMBOL        EP2BCL
  X:E612H         SYMBOL        EP2CFG
  X:E6A3H         SYMBOL        EP2CS
  X:E6ABH         SYMBOL        EP2FIFOBCH
  X:E6ACH         SYMBOL        EP2FIFOBCL
  X:F000H         SYMBOL        EP2FIFOBUF
  X:E618H         SYMBOL        EP2FIFOCFG
  X:E6A7H         SYMBOL        EP2FIFOFLGS
  X:E650H         SYMBOL        EP2FIFOIE
  X:E651H         SYMBOL        EP2FIFOIRQ
  X:E630H         SYMBOL        EP2FIFOPFH
  X:E631H         SYMBOL        EP2FIFOPFL
  X:E6D2H         SYMBOL        EP2GPIFFLGSEL
  X:E6D3H         SYMBOL        EP2GPIFPFSTOP
  X:E6D0H         SYMBOL        EP2GPIFTCH
  X:E6D1H         SYMBOL        EP2GPIFTCL
  X:E6D4H         SYMBOL        EP2GPIFTRIG
  X:E640H         SYMBOL        EP2ISOINPKTS
  X:E622H         SYMBOL        EP4AUTOINLENH
  X:E623H         SYMBOL        EP4AUTOINLENL
  X:E694H         SYMBOL        EP4BCH
  X:E695H         SYMBOL        EP4BCL
  X:E613H         SYMBOL        EP4CFG
  X:E6A4H         SYMBOL        EP4CS
  X:E6ADH         SYMBOL        EP4FIFOBCH
  X:E6AEH         SYMBOL        EP4FIFOBCL
  X:F400H         SYMBOL        EP4FIFOBUF
  X:E619H         SYMBOL        EP4FIFOCFG
  X:E6A8H         SYMBOL        EP4FIFOFLGS
  X:E652H         SYMBOL        EP4FIFOIE
  X:E653H         SYMBOL        EP4FIFOIRQ
  X:E632H         SYMBOL        EP4FIFOPFH
  X:E633H         SYMBOL        EP4FIFOPFL
BL51 BANKED LINKER/LOCATER V6.22                                                      05/10/2018  21:55:46  PAGE 25


  X:E6DAH         SYMBOL        EP4GPIFFLGSEL
  X:E6DBH         SYMBOL        EP4GPIFPFSTOP
  X:E6D0H         SYMBOL        EP4GPIFTCH
  X:E6D1H         SYMBOL        EP4GPIFTCL
  X:E6DCH         SYMBOL        EP4GPIFTRIG
  X:E641H         SYMBOL        EP4ISOINPKTS
  D:00ACH         SYMBOL        EP68FIFOFLGS
  X:E624H         SYMBOL        EP6AUTOINLENH
  X:E625H         SYMBOL        EP6AUTOINLENL
  X:E698H         SYMBOL        EP6BCH
  X:E699H         SYMBOL        EP6BCL
  X:E614H         SYMBOL        EP6CFG
  X:E6A5H         SYMBOL        EP6CS
  X:E6AFH         SYMBOL        EP6FIFOBCH
  X:E6B0H         SYMBOL        EP6FIFOBCL
  X:F800H         SYMBOL        EP6FIFOBUF
  X:E61AH         SYMBOL        EP6FIFOCFG
  X:E6A9H         SYMBOL        EP6FIFOFLGS
  X:E654H         SYMBOL        EP6FIFOIE
  X:E655H         SYMBOL        EP6FIFOIRQ
  X:E634H         SYMBOL        EP6FIFOPFH
  X:E635H         SYMBOL        EP6FIFOPFL
  X:E6E2H         SYMBOL        EP6GPIFFLGSEL
  X:E6E3H         SYMBOL        EP6GPIFPFSTOP
  X:E6D0H         SYMBOL        EP6GPIFTCH
  X:E6D1H         SYMBOL        EP6GPIFTCL
  X:E6E4H         SYMBOL        EP6GPIFTRIG
  X:E642H         SYMBOL        EP6ISOINPKTS
  X:E626H         SYMBOL        EP8AUTOINLENH
  X:E627H         SYMBOL        EP8AUTOINLENL
  X:E69CH         SYMBOL        EP8BCH
  X:E69DH         SYMBOL        EP8BCL
  X:E615H         SYMBOL        EP8CFG
  X:E6A6H         SYMBOL        EP8CS
  X:E6B1H         SYMBOL        EP8FIFOBCH
  X:E6B2H         SYMBOL        EP8FIFOBCL
  X:FC00H         SYMBOL        EP8FIFOBUF
  X:E61BH         SYMBOL        EP8FIFOCFG
  X:E6AAH         SYMBOL        EP8FIFOFLGS
  X:E656H         SYMBOL        EP8FIFOIE
  X:E657H         SYMBOL        EP8FIFOIRQ
  X:E636H         SYMBOL        EP8FIFOPFH
  X:E637H         SYMBOL        EP8FIFOPFL
  X:E6EAH         SYMBOL        EP8GPIFFLGSEL
  X:E6EBH         SYMBOL        EP8GPIFPFSTOP
  X:E6D0H         SYMBOL        EP8GPIFTCH
  X:E6D1H         SYMBOL        EP8GPIFTCL
  X:E6ECH         SYMBOL        EP8GPIFTRIG
  X:E643H         SYMBOL        EP8ISOINPKTS
  X:E65EH         SYMBOL        EPIE
  X:E65FH         SYMBOL        EPIRQ
  B:00D8H.5       SYMBOL        ERESI
  X:E664H         SYMBOL        ERRCNTLIM
  C:0700H         SYMBOL        ER_END
  B:00A8H.4       SYMBOL        ES0
  B:00A8H.6       SYMBOL        ES1
  B:00A8H.1       SYMBOL        ET0
BL51 BANKED LINKER/LOCATER V6.22                                                      05/10/2018  21:55:46  PAGE 26


  B:00A8H.3       SYMBOL        ET1
  B:00A8H.5       SYMBOL        ET2
  B:00E8H.0       SYMBOL        EUSB
  B:00A8H.0       SYMBOL        EX0
  B:00A8H.2       SYMBOL        EX1
  B:00C8H.3       SYMBOL        EXEN2
  B:00C8H.6       SYMBOL        EXF2
  D:0091H         SYMBOL        EXIF
  X:E67BH         SYMBOL        EXTAUTODAT1
  X:E67CH         SYMBOL        EXTAUTODAT2
  B:00D0H.5       SYMBOL        F0
  X:E609H         SYMBOL        FIFOPINPOLAR
  X:E604H         SYMBOL        FIFORESET
  B:00D0H.1       SYMBOL        FL
  X:E6CCH         SYMBOL        FLOWEDGE
  X:E6C8H         SYMBOL        FLOWEQ0CTL
  X:E6C9H         SYMBOL        FLOWEQ1CTL
  X:E6C7H         SYMBOL        FLOWLOGIC
  X:E6C6H         SYMBOL        FLOWSTATE
  X:E6CBH         SYMBOL        FLOWSTB
  X:E6CDH         SYMBOL        FLOWSTBHPERIOD
  X:E687H         SYMBOL        FNADDR
  X:E509H         SYMBOL        GPCR2
  X:E6F5H         SYMBOL        GPIFABORT
  X:E6C4H         SYMBOL        GPIFADRH
  X:E6C5H         SYMBOL        GPIFADRL
  X:E6C3H         SYMBOL        GPIFCTLCFG
  X:E60CH         SYMBOL        GPIFHOLDAMOUNT
  X:E6C1H         SYMBOL        GPIFIDLECS
  X:E6C2H         SYMBOL        GPIFIDLECTL
  X:E660H         SYMBOL        GPIFIE
  X:E661H         SYMBOL        GPIFIRQ
  X:E6F3H         SYMBOL        GPIFREADYCFG
  X:E6F4H         SYMBOL        GPIFREADYSTAT
  D:00BDH         SYMBOL        GPIFSGLDATH
  D:00BFH         SYMBOL        GPIFSGLDATLNOX
  D:00BEH         SYMBOL        GPIFSGLDATLX
  X:E6D1H         SYMBOL        GPIFTCB0
  X:E6D0H         SYMBOL        GPIFTCB1
  X:E6CFH         SYMBOL        GPIFTCB2
  X:E6CEH         SYMBOL        GPIFTCB3
  D:00BBH         SYMBOL        GPIFTRIG
  X:E6C0H         SYMBOL        GPIFWFSELECT
  X:E400H         SYMBOL        GPIF_WAVE_DATA
  X:E678H         SYMBOL        I2CS
  X:E67AH         SYMBOL        I2CTL
  X:E679H         SYMBOL        I2DAT
  X:E658H         SYMBOL        IBNIE
  X:E659H         SYMBOL        IBNIRQ
  D:00A8H         SYMBOL        IE
  B:0088H.1       SYMBOL        IE0
  B:0088H.3       SYMBOL        IE1
  X:E601H         SYMBOL        IFCONFIG
  X:E648H         SYMBOL        INPKTEND
  D:00A1H         SYMBOL        INT2CLR
  X:E666H         SYMBOL        INT2IVEC
  D:00A2H         SYMBOL        INT4CLR
BL51 BANKED LINKER/LOCATER V6.22                                                      05/10/2018  21:55:46  PAGE 27


  X:E667H         SYMBOL        INT4IVEC
  B:00D8H.3       SYMBOL        INT6
  X:E668H         SYMBOL        INTSETUP
  D:0080H         SYMBOL        IOA
  D:0090H         SYMBOL        IOB
  D:00A0H         SYMBOL        IOC
  D:00B0H         SYMBOL        IOD
  D:00B1H         SYMBOL        IOE
  D:00B8H         SYMBOL        IP
  B:0088H.0       SYMBOL        IT0
  B:0088H.2       SYMBOL        IT1
  X:E686H         SYMBOL        MICROFRAME
  D:0092H         SYMBOL        MPAGE
  X:E65AH         SYMBOL        NAKIE
  X:E65BH         SYMBOL        NAKIRQ
  D:00B2H         SYMBOL        OEA
  D:00B3H         SYMBOL        OEB
  D:00B4H         SYMBOL        OEC
  D:00B5H         SYMBOL        OED
  D:00B6H         SYMBOL        OEE
  X:E649H         SYMBOL        OUTPKTEND
  B:00D0H.2       SYMBOL        OV
  B:00D0H.0       SYMBOL        P
  D:0087H         SYMBOL        PCON
  B:00F8H.1       SYMBOL        PI2C
  X:E602H         SYMBOL        PINFLAGSAB
  X:E603H         SYMBOL        PINFLAGSCD
  X:E670H         SYMBOL        PORTACFG
  X:E671H         SYMBOL        PORTCCFG
  X:E672H         SYMBOL        PORTECFG
  B:00B8H.4       SYMBOL        PS0
  B:00B8H.6       SYMBOL        PS1
  D:00D0H         SYMBOL        PSW
  B:00B8H.1       SYMBOL        PT0
  B:00B8H.3       SYMBOL        PT1
  B:00B8H.5       SYMBOL        PT2
  B:00F8H.0       SYMBOL        PUSB
  B:00B8H.0       SYMBOL        PX0
  B:00B8H.2       SYMBOL        PX1
  B:0098H.2       SYMBOL        RB8
  B:00C0H.2       SYMBOL        RB81
  D:00CBH         SYMBOL        RCAP2H
  D:00CAH         SYMBOL        RCAP2L
  B:00C8H.5       SYMBOL        RCLK
  B:0098H.4       SYMBOL        REN
  B:00C0H.4       SYMBOL        REN1
  B:00D8H.4       SYMBOL        RESI
  X:E480H         SYMBOL        RES_WAVEDATA_END
  X:E60BH         SYMBOL        REVCTL
  X:E60AH         SYMBOL        REVID
  B:0098H.0       SYMBOL        RI
  B:00C0H.0       SYMBOL        RI1
  B:00D0H.3       SYMBOL        RS0
  B:00D0H.4       SYMBOL        RS1
  D:0099H         SYMBOL        SBUF0
  D:00C1H         SYMBOL        SBUF1
  D:0098H         SYMBOL        SCON0
BL51 BANKED LINKER/LOCATER V6.22                                                      05/10/2018  21:55:46  PAGE 28


  D:00C0H         SYMBOL        SCON1
  B:0080H.6       SYMBOL        SEL
  X:E6B8H         SYMBOL        SETUPDAT
  B:0098H.7       SYMBOL        SM0
  B:00C0H.7       SYMBOL        SM01
  B:0098H.6       SYMBOL        SM1
  B:00C0H.6       SYMBOL        SM11
  B:0098H.5       SYMBOL        SM2
  B:00C0H.5       SYMBOL        SM21
  B:00D8H.7       SYMBOL        SMOD1
  D:0081H         SYMBOL        SP
  X:E6B5H         SYMBOL        SUDPTRCTL
  X:E6B3H         SYMBOL        SUDPTRH
  X:E6B4H         SYMBOL        SUDPTRL
  N:0000H         SYMBOL        SUSP
  X:E681H         SYMBOL        SUSPEND
  D:00C8H         SYMBOL        T2CON
  B:0098H.3       SYMBOL        TB8
  B:00C0H.3       SYMBOL        TB81
  B:00C8H.4       SYMBOL        TCLK
  D:0088H         SYMBOL        TCON
  X:E6F9H         SYMBOL        TESTCFG
  B:0088H.5       SYMBOL        TF0
  B:0088H.7       SYMBOL        TF1
  B:00C8H.7       SYMBOL        TF2
  D:008CH         SYMBOL        TH0
  D:008DH         SYMBOL        TH1
  D:00CDH         SYMBOL        TH2
  B:0098H.1       SYMBOL        TI
  B:00C0H.1       SYMBOL        TI1
  D:008AH         SYMBOL        TL0
  D:008BH         SYMBOL        TL1
  D:00CCH         SYMBOL        TL2
  D:0089H         SYMBOL        TMOD
  X:E683H         SYMBOL        TOGCTL
  B:0088H.4       SYMBOL        TR0
  B:0088H.6       SYMBOL        TR1
  B:00C8H.2       SYMBOL        TR2
  X:E608H         SYMBOL        UART230
  X:E67DH         SYMBOL        UDMACRCH
  X:E67EH         SYMBOL        UDMACRCL
  X:E67FH         SYMBOL        UDMACRCQUAL
  X:E680H         SYMBOL        USBCS
  X:E662H         SYMBOL        USBERRIE
  X:E663H         SYMBOL        USBERRIRQ
  X:E684H         SYMBOL        USBFRAMEH
  X:E685H         SYMBOL        USBFRAMEL
  X:E65CH         SYMBOL        USBIE
  X:E65DH         SYMBOL        USBIRQ
  X:E6FAH         SYMBOL        USBTEST
  X:E682H         SYMBOL        WAKEUPCS
  X:E6F0H         SYMBOL        XGPIFSGLDATH
  X:E6F2H         SYMBOL        XGPIFSGLDATLNOX
  X:E6F1H         SYMBOL        XGPIFSGLDATLX
  C:06EDH         LINE#         22
  C:06F0H         LINE#         23
  C:06F1H         LINE#         24
BL51 BANKED LINKER/LOCATER V6.22                                                      05/10/2018  21:55:46  PAGE 29


  C:06F3H         LINE#         25
  C:06F4H         LINE#         27
  C:06F7H         LINE#         28
  C:06F8H         LINE#         30
  C:06FBH         LINE#         32
  C:06FCH         LINE#         33
  C:06FDH         LINE#         34
  C:06FEH         LINE#         35
  C:06FFH         LINE#         36
  C:0700H         LINE#         37
  -------         ENDMOD        SUSP

  -------         MODULE        DELAY
  C:0000H         SYMBOL        _ICE_DUMMY_
  C:04B8H         PUBLIC        _EZUSB_Delay
  -------         PROC          _EZUSB_DELAY
  D:0018H         SYMBOL        ms
  C:04B8H         LINE#         39
  C:04BCH         LINE#         40
  C:04BCH         LINE#         46
  C:04C4H         LINE#         47
  C:04D6H         LINE#         48
  C:04E0H         LINE#         49
  C:04EBH         LINE#         51
  C:04F8H         LINE#         52
  C:04FDH         LINE#         53
  -------         ENDPROC       _EZUSB_DELAY
  -------         ENDMOD        DELAY

  -------         MODULE        DELAY1MS
  C:06EDH         SEGMENT       EZUSB
  C:0701H         PUBLIC        EZUSB_DELAY1MS
  B:00D0H.6       SYMBOL        AC
  D:00E0H         SYMBOL        ACC
  D:009AH         SYMBOL        APTR1H
  D:009BH         SYMBOL        APTR1L
  D:009AH         SYMBOL        AUTOPTR1H
  D:009BH         SYMBOL        AUTOPTR1L
  D:009AH         SYMBOL        AUTOPTRH1
  D:009DH         SYMBOL        AUTOPTRH2
  D:009BH         SYMBOL        AUTOPTRL1
  D:009EH         SYMBOL        AUTOPTRL2
  D:00AFH         SYMBOL        AUTOPTRSETUP
  D:00F0H         SYMBOL        B
  X:E606H         SYMBOL        BPADDRH
  X:E607H         SYMBOL        BPADDRL
  X:E605H         SYMBOL        BREAKPT
  D:008EH         SYMBOL        CKCON
  X:E665H         SYMBOL        CLRERRCNT
  X:E600H         SYMBOL        CPUCS
  B:00C8H.0       SYMBOL        CP_RL2
  X:E6FBH         SYMBOL        CT1
  X:E6FCH         SYMBOL        CT2
  X:E6FDH         SYMBOL        CT3
  X:E6FEH         SYMBOL        CT4
  B:00D0H.7       SYMBOL        CY
  B:00C8H.1       SYMBOL        C_T2
BL51 BANKED LINKER/LOCATER V6.22                                                      05/10/2018  21:55:46  PAGE 30


  X:E6F8H         SYMBOL        DBUG
  N:0000H         SYMBOL        DELAY1MS
  D:0083H         SYMBOL        DPH
  D:0085H         SYMBOL        DPH1
  D:0082H         SYMBOL        DPL
  D:0084H         SYMBOL        DPL1
  D:0086H         SYMBOL        DPS
  B:00A8H.7       SYMBOL        EA
  X:E62AH         SYMBOL        ECC1B0
  X:E62BH         SYMBOL        ECC1B1
  X:E62CH         SYMBOL        ECC1B2
  X:E62DH         SYMBOL        ECC2B0
  X:E62EH         SYMBOL        ECC2B1
  X:E62FH         SYMBOL        ECC2B2
  X:E628H         SYMBOL        ECCCFG
  X:E629H         SYMBOL        ECCRESET
  B:00E8H.1       SYMBOL        EI2C
  D:00D8H         SYMBOL        EICON
  D:00E8H         SYMBOL        EIE
  B:00E8H.2       SYMBOL        EIEX4
  B:00E8H.3       SYMBOL        EIEX5
  B:00E8H.4       SYMBOL        EIEX6
  D:00F8H         SYMBOL        EIP
  B:00F8H.2       SYMBOL        EIPX4
  B:00F8H.3       SYMBOL        EIPX5
  B:00F8H.4       SYMBOL        EIPX6
  D:00BAH         SYMBOL        EP01STAT
  X:E68AH         SYMBOL        EP0BCH
  X:E68BH         SYMBOL        EP0BCL
  X:E740H         SYMBOL        EP0BUF
  X:E6A0H         SYMBOL        EP0CS
  X:E780H         SYMBOL        EP10UTBUF
  X:E68FH         SYMBOL        EP1INBC
  X:E7C0H         SYMBOL        EP1INBUF
  X:E611H         SYMBOL        EP1INCFG
  X:E6A2H         SYMBOL        EP1INCS
  X:E68DH         SYMBOL        EP1OUTBC
  X:E610H         SYMBOL        EP1OUTCFG
  X:E6A1H         SYMBOL        EP1OUTCS
  D:00AAH         SYMBOL        EP2468STAT
  D:00ABH         SYMBOL        EP24FIFOFLGS
  X:E620H         SYMBOL        EP2AUTOINLENH
  X:E621H         SYMBOL        EP2AUTOINLENL
  X:E690H         SYMBOL        EP2BCH
  X:E691H         SYMBOL        EP2BCL
  X:E612H         SYMBOL        EP2CFG
  X:E6A3H         SYMBOL        EP2CS
  X:E6ABH         SYMBOL        EP2FIFOBCH
  X:E6ACH         SYMBOL        EP2FIFOBCL
  X:F000H         SYMBOL        EP2FIFOBUF
  X:E618H         SYMBOL        EP2FIFOCFG
  X:E6A7H         SYMBOL        EP2FIFOFLGS
  X:E650H         SYMBOL        EP2FIFOIE
  X:E651H         SYMBOL        EP2FIFOIRQ
  X:E630H         SYMBOL        EP2FIFOPFH
  X:E631H         SYMBOL        EP2FIFOPFL
  X:E6D2H         SYMBOL        EP2GPIFFLGSEL
BL51 BANKED LINKER/LOCATER V6.22                                                      05/10/2018  21:55:46  PAGE 31


  X:E6D3H         SYMBOL        EP2GPIFPFSTOP
  X:E6D0H         SYMBOL        EP2GPIFTCH
  X:E6D1H         SYMBOL        EP2GPIFTCL
  X:E6D4H         SYMBOL        EP2GPIFTRIG
  X:E640H         SYMBOL        EP2ISOINPKTS
  X:E622H         SYMBOL        EP4AUTOINLENH
  X:E623H         SYMBOL        EP4AUTOINLENL
  X:E694H         SYMBOL        EP4BCH
  X:E695H         SYMBOL        EP4BCL
  X:E613H         SYMBOL        EP4CFG
  X:E6A4H         SYMBOL        EP4CS
  X:E6ADH         SYMBOL        EP4FIFOBCH
  X:E6AEH         SYMBOL        EP4FIFOBCL
  X:F400H         SYMBOL        EP4FIFOBUF
  X:E619H         SYMBOL        EP4FIFOCFG
  X:E6A8H         SYMBOL        EP4FIFOFLGS
  X:E652H         SYMBOL        EP4FIFOIE
  X:E653H         SYMBOL        EP4FIFOIRQ
  X:E632H         SYMBOL        EP4FIFOPFH
  X:E633H         SYMBOL        EP4FIFOPFL
  X:E6DAH         SYMBOL        EP4GPIFFLGSEL
  X:E6DBH         SYMBOL        EP4GPIFPFSTOP
  X:E6D0H         SYMBOL        EP4GPIFTCH
  X:E6D1H         SYMBOL        EP4GPIFTCL
  X:E6DCH         SYMBOL        EP4GPIFTRIG
  X:E641H         SYMBOL        EP4ISOINPKTS
  D:00ACH         SYMBOL        EP68FIFOFLGS
  X:E624H         SYMBOL        EP6AUTOINLENH
  X:E625H         SYMBOL        EP6AUTOINLENL
  X:E698H         SYMBOL        EP6BCH
  X:E699H         SYMBOL        EP6BCL
  X:E614H         SYMBOL        EP6CFG
  X:E6A5H         SYMBOL        EP6CS
  X:E6AFH         SYMBOL        EP6FIFOBCH
  X:E6B0H         SYMBOL        EP6FIFOBCL
  X:F800H         SYMBOL        EP6FIFOBUF
  X:E61AH         SYMBOL        EP6FIFOCFG
  X:E6A9H         SYMBOL        EP6FIFOFLGS
  X:E654H         SYMBOL        EP6FIFOIE
  X:E655H         SYMBOL        EP6FIFOIRQ
  X:E634H         SYMBOL        EP6FIFOPFH
  X:E635H         SYMBOL        EP6FIFOPFL
  X:E6E2H         SYMBOL        EP6GPIFFLGSEL
  X:E6E3H         SYMBOL        EP6GPIFPFSTOP
  X:E6D0H         SYMBOL        EP6GPIFTCH
  X:E6D1H         SYMBOL        EP6GPIFTCL
  X:E6E4H         SYMBOL        EP6GPIFTRIG
  X:E642H         SYMBOL        EP6ISOINPKTS
  X:E626H         SYMBOL        EP8AUTOINLENH
  X:E627H         SYMBOL        EP8AUTOINLENL
  X:E69CH         SYMBOL        EP8BCH
  X:E69DH         SYMBOL        EP8BCL
  X:E615H         SYMBOL        EP8CFG
  X:E6A6H         SYMBOL        EP8CS
  X:E6B1H         SYMBOL        EP8FIFOBCH
  X:E6B2H         SYMBOL        EP8FIFOBCL
  X:FC00H         SYMBOL        EP8FIFOBUF
BL51 BANKED LINKER/LOCATER V6.22                                                      05/10/2018  21:55:46  PAGE 32


  X:E61BH         SYMBOL        EP8FIFOCFG
  X:E6AAH         SYMBOL        EP8FIFOFLGS
  X:E656H         SYMBOL        EP8FIFOIE
  X:E657H         SYMBOL        EP8FIFOIRQ
  X:E636H         SYMBOL        EP8FIFOPFH
  X:E637H         SYMBOL        EP8FIFOPFL
  X:E6EAH         SYMBOL        EP8GPIFFLGSEL
  X:E6EBH         SYMBOL        EP8GPIFPFSTOP
  X:E6D0H         SYMBOL        EP8GPIFTCH
  X:E6D1H         SYMBOL        EP8GPIFTCL
  X:E6ECH         SYMBOL        EP8GPIFTRIG
  X:E643H         SYMBOL        EP8ISOINPKTS
  X:E65EH         SYMBOL        EPIE
  X:E65FH         SYMBOL        EPIRQ
  B:00D8H.5       SYMBOL        ERESI
  X:E664H         SYMBOL        ERRCNTLIM
  C:0711H         SYMBOL        ER_END
  B:00A8H.4       SYMBOL        ES0
  B:00A8H.6       SYMBOL        ES1
  B:00A8H.1       SYMBOL        ET0
  B:00A8H.3       SYMBOL        ET1
  B:00A8H.5       SYMBOL        ET2
  B:00E8H.0       SYMBOL        EUSB
  B:00A8H.0       SYMBOL        EX0
  B:00A8H.2       SYMBOL        EX1
  B:00C8H.3       SYMBOL        EXEN2
  B:00C8H.6       SYMBOL        EXF2
  D:0091H         SYMBOL        EXIF
  X:E67BH         SYMBOL        EXTAUTODAT1
  X:E67CH         SYMBOL        EXTAUTODAT2
  B:00D0H.5       SYMBOL        F0
  X:E609H         SYMBOL        FIFOPINPOLAR
  X:E604H         SYMBOL        FIFORESET
  B:00D0H.1       SYMBOL        FL
  X:E6CCH         SYMBOL        FLOWEDGE
  X:E6C8H         SYMBOL        FLOWEQ0CTL
  X:E6C9H         SYMBOL        FLOWEQ1CTL
  X:E6C7H         SYMBOL        FLOWLOGIC
  X:E6C6H         SYMBOL        FLOWSTATE
  X:E6CBH         SYMBOL        FLOWSTB
  X:E6CDH         SYMBOL        FLOWSTBHPERIOD
  X:E687H         SYMBOL        FNADDR
  X:E509H         SYMBOL        GPCR2
  X:E6F5H         SYMBOL        GPIFABORT
  X:E6C4H         SYMBOL        GPIFADRH
  X:E6C5H         SYMBOL        GPIFADRL
  X:E6C3H         SYMBOL        GPIFCTLCFG
  X:E60CH         SYMBOL        GPIFHOLDAMOUNT
  X:E6C1H         SYMBOL        GPIFIDLECS
  X:E6C2H         SYMBOL        GPIFIDLECTL
  X:E660H         SYMBOL        GPIFIE
  X:E661H         SYMBOL        GPIFIRQ
  X:E6F3H         SYMBOL        GPIFREADYCFG
  X:E6F4H         SYMBOL        GPIFREADYSTAT
  D:00BDH         SYMBOL        GPIFSGLDATH
  D:00BFH         SYMBOL        GPIFSGLDATLNOX
  D:00BEH         SYMBOL        GPIFSGLDATLX
BL51 BANKED LINKER/LOCATER V6.22                                                      05/10/2018  21:55:46  PAGE 33


  X:E6D1H         SYMBOL        GPIFTCB0
  X:E6D0H         SYMBOL        GPIFTCB1
  X:E6CFH         SYMBOL        GPIFTCB2
  X:E6CEH         SYMBOL        GPIFTCB3
  D:00BBH         SYMBOL        GPIFTRIG
  X:E6C0H         SYMBOL        GPIFWFSELECT
  X:E400H         SYMBOL        GPIF_WAVE_DATA
  X:E678H         SYMBOL        I2CS
  X:E67AH         SYMBOL        I2CTL
  X:E679H         SYMBOL        I2DAT
  X:E658H         SYMBOL        IBNIE
  X:E659H         SYMBOL        IBNIRQ
  D:00A8H         SYMBOL        IE
  B:0088H.1       SYMBOL        IE0
  B:0088H.3       SYMBOL        IE1
  X:E601H         SYMBOL        IFCONFIG
  X:E648H         SYMBOL        INPKTEND
  D:00A1H         SYMBOL        INT2CLR
  X:E666H         SYMBOL        INT2IVEC
  D:00A2H         SYMBOL        INT4CLR
  X:E667H         SYMBOL        INT4IVEC
  B:00D8H.3       SYMBOL        INT6
  X:E668H         SYMBOL        INTSETUP
  D:0080H         SYMBOL        IOA
  D:0090H         SYMBOL        IOB
  D:00A0H         SYMBOL        IOC
  D:00B0H         SYMBOL        IOD
  D:00B1H         SYMBOL        IOE
  D:00B8H         SYMBOL        IP
  B:0088H.0       SYMBOL        IT0
  B:0088H.2       SYMBOL        IT1
  C:070AH         SYMBOL        LOOP
  X:E686H         SYMBOL        MICROFRAME
  D:0092H         SYMBOL        MPAGE
  X:E65AH         SYMBOL        NAKIE
  X:E65BH         SYMBOL        NAKIRQ
  D:00B2H         SYMBOL        OEA
  D:00B3H         SYMBOL        OEB
  D:00B4H         SYMBOL        OEC
  D:00B5H         SYMBOL        OED
  D:00B6H         SYMBOL        OEE
  X:E649H         SYMBOL        OUTPKTEND
  B:00D0H.2       SYMBOL        OV
  B:00D0H.0       SYMBOL        P
  D:0087H         SYMBOL        PCON
  B:00F8H.1       SYMBOL        PI2C
  X:E602H         SYMBOL        PINFLAGSAB
  X:E603H         SYMBOL        PINFLAGSCD
  X:E670H         SYMBOL        PORTACFG
  X:E671H         SYMBOL        PORTCCFG
  X:E672H         SYMBOL        PORTECFG
  B:00B8H.4       SYMBOL        PS0
  B:00B8H.6       SYMBOL        PS1
  D:00D0H         SYMBOL        PSW
  B:00B8H.1       SYMBOL        PT0
  B:00B8H.3       SYMBOL        PT1
  B:00B8H.5       SYMBOL        PT2
BL51 BANKED LINKER/LOCATER V6.22                                                      05/10/2018  21:55:46  PAGE 34


  B:00F8H.0       SYMBOL        PUSB
  B:00B8H.0       SYMBOL        PX0
  B:00B8H.2       SYMBOL        PX1
  B:0098H.2       SYMBOL        RB8
  B:00C0H.2       SYMBOL        RB81
  D:00CBH         SYMBOL        RCAP2H
  D:00CAH         SYMBOL        RCAP2L
  B:00C8H.5       SYMBOL        RCLK
  B:0098H.4       SYMBOL        REN
  B:00C0H.4       SYMBOL        REN1
  B:00D8H.4       SYMBOL        RESI
  X:E480H         SYMBOL        RES_WAVEDATA_END
  X:E60BH         SYMBOL        REVCTL
  X:E60AH         SYMBOL        REVID
  B:0098H.0       SYMBOL        RI
  B:00C0H.0       SYMBOL        RI1
  B:00D0H.3       SYMBOL        RS0
  B:00D0H.4       SYMBOL        RS1
  D:0099H         SYMBOL        SBUF0
  D:00C1H         SYMBOL        SBUF1
  D:0098H         SYMBOL        SCON0
  D:00C0H         SYMBOL        SCON1
  B:0080H.6       SYMBOL        SEL
  X:E6B8H         SYMBOL        SETUPDAT
  B:0098H.7       SYMBOL        SM0
  B:00C0H.7       SYMBOL        SM01
  B:0098H.6       SYMBOL        SM1
  B:00C0H.6       SYMBOL        SM11
  B:0098H.5       SYMBOL        SM2
  B:00C0H.5       SYMBOL        SM21
  B:00D8H.7       SYMBOL        SMOD1
  D:0081H         SYMBOL        SP
  X:E6B5H         SYMBOL        SUDPTRCTL
  X:E6B3H         SYMBOL        SUDPTRH
  X:E6B4H         SYMBOL        SUDPTRL
  X:E681H         SYMBOL        SUSPEND
  D:00C8H         SYMBOL        T2CON
  B:0098H.3       SYMBOL        TB8
  B:00C0H.3       SYMBOL        TB81
  B:00C8H.4       SYMBOL        TCLK
  D:0088H         SYMBOL        TCON
  X:E6F9H         SYMBOL        TESTCFG
  B:0088H.5       SYMBOL        TF0
  B:0088H.7       SYMBOL        TF1
  B:00C8H.7       SYMBOL        TF2
  D:008CH         SYMBOL        TH0
  D:008DH         SYMBOL        TH1
  D:00CDH         SYMBOL        TH2
  B:0098H.1       SYMBOL        TI
  B:00C0H.1       SYMBOL        TI1
  D:008AH         SYMBOL        TL0
  D:008BH         SYMBOL        TL1
  D:00CCH         SYMBOL        TL2
  D:0089H         SYMBOL        TMOD
  X:E683H         SYMBOL        TOGCTL
  B:0088H.4       SYMBOL        TR0
  B:0088H.6       SYMBOL        TR1
BL51 BANKED LINKER/LOCATER V6.22                                                      05/10/2018  21:55:46  PAGE 35


  B:00C8H.2       SYMBOL        TR2
  X:E608H         SYMBOL        UART230
  X:E67DH         SYMBOL        UDMACRCH
  X:E67EH         SYMBOL        UDMACRCL
  X:E67FH         SYMBOL        UDMACRCQUAL
  X:E680H         SYMBOL        USBCS
  X:E662H         SYMBOL        USBERRIE
  X:E663H         SYMBOL        USBERRIRQ
  X:E684H         SYMBOL        USBFRAMEH
  X:E685H         SYMBOL        USBFRAMEL
  X:E65CH         SYMBOL        USBIE
  X:E65DH         SYMBOL        USBIRQ
  X:E6FAH         SYMBOL        USBTEST
  X:E682H         SYMBOL        WAKEUPCS
  X:E6F0H         SYMBOL        XGPIFSGLDATH
  X:E6F2H         SYMBOL        XGPIFSGLDATLNOX
  X:E6F1H         SYMBOL        XGPIFSGLDATLX
  C:0701H         LINE#         48
  C:0703H         LINE#         49
  C:0705H         LINE#         50
  C:0708H         LINE#         51
  C:070AH         LINE#         53
  C:070BH         LINE#         54
  C:070DH         LINE#         55
  C:070FH         LINE#         56
  C:0711H         LINE#         58
  -------         ENDMOD        DELAY1MS

  -------         MODULE        USBJMPTBL
  C:0400H         SEGMENT       ?PR?USB_JUMP_TABLE?USBJT
  N:0045H         PUBLIC        USB_INT2AUTOVECTOR
  N:0055H         PUBLIC        USB_INT4AUTOVECTOR
  C:0400H         PUBLIC        USB_JUMP_TABLE
  N:0000H         SYMBOL        USBJMPTBL
  C:0043H         LINE#         49
  C:0053H         LINE#         53
  C:0400H         LINE#         61
  C:0404H         LINE#         63
  C:0408H         LINE#         65
  C:040CH         LINE#         67
  C:0410H         LINE#         69
  C:0414H         LINE#         71
  C:0418H         LINE#         73
  C:041CH         LINE#         75
  C:0420H         LINE#         77
  C:0424H         LINE#         79
  C:0428H         LINE#         81
  C:042CH         LINE#         83
  C:0430H         LINE#         85
  C:0434H         LINE#         87
  C:0438H         LINE#         89
  C:043CH         LINE#         91
  C:0440H         LINE#         93
  C:0444H         LINE#         95
  C:0448H         LINE#         97
  C:044CH         LINE#         99
  C:0450H         LINE#         101
BL51 BANKED LINKER/LOCATER V6.22                                                      05/10/2018  21:55:46  PAGE 36


  C:0454H         LINE#         103
  C:0458H         LINE#         105
  C:045CH         LINE#         107
  C:0460H         LINE#         109
  C:0464H         LINE#         111
  C:0468H         LINE#         113
  C:046CH         LINE#         115
  C:0470H         LINE#         117
  C:0474H         LINE#         119
  C:0478H         LINE#         121
  C:047CH         LINE#         123
  C:0480H         LINE#         126
  C:0484H         LINE#         128
  C:0488H         LINE#         130
  C:048CH         LINE#         132
  C:0490H         LINE#         134
  C:0494H         LINE#         136
  C:0498H         LINE#         138
  C:049CH         LINE#         140
  C:04A0H         LINE#         142
  C:04A4H         LINE#         144
  C:04A8H         LINE#         146
  C:04ACH         LINE#         148
  C:04B0H         LINE#         150
  C:04B4H         LINE#         152
  -------         ENDMOD        USBJMPTBL

  -------         MODULE        ?C?ULCMP
  C:0792H         PUBLIC        ?C?ULCMP
  -------         ENDMOD        ?C?ULCMP

Program Size: data=43.5 xdata=4473 code=2019
LINK/LOCATE RUN COMPLETE.  0 WARNING(S),  0 ERROR(S)
